
adr_leds_stm32f407.elf:     file format elf32-littlearm

Sections:
Idx Name          Size      VMA       LMA       File off  Algn
  0 .isr_vector   00000188  08000000  08000000  00010000  2**0
                  CONTENTS, ALLOC, LOAD, READONLY, DATA
  1 .text         00002068  08000188  08000188  00010188  2**2
                  CONTENTS, ALLOC, LOAD, READONLY, CODE
  2 .rodata       00000018  080021f0  080021f0  000121f0  2**2
                  CONTENTS, ALLOC, LOAD, READONLY, DATA
  3 .ARM.extab    00000000  08002208  08002208  000254a4  2**0
                  CONTENTS
  4 .ARM          00000008  08002208  08002208  00012208  2**2
                  CONTENTS, ALLOC, LOAD, READONLY, DATA
  5 .preinit_array 00000000  08002210  08002210  000254a4  2**0
                  CONTENTS, ALLOC, LOAD, DATA
  6 .init_array   00000004  08002210  08002210  00012210  2**2
                  CONTENTS, ALLOC, LOAD, DATA
  7 .fini_array   00000004  08002214  08002214  00012214  2**2
                  CONTENTS, ALLOC, LOAD, DATA
  8 .data         000054a4  20000000  08002218  00020000  2**2
                  CONTENTS, ALLOC, LOAD, DATA
  9 .bss          000055a8  200054a4  080076bc  000254a4  2**2
                  ALLOC
 10 ._user_heap_stack 00000804  2000aa4c  080076bc  0002aa4c  2**0
                  ALLOC
 11 .ARM.attributes 00000030  00000000  00000000  000254a4  2**0
                  CONTENTS, READONLY
 12 .debug_info   00009d6e  00000000  00000000  000254d4  2**0
                  CONTENTS, READONLY, DEBUGGING
 13 .debug_abbrev 00001912  00000000  00000000  0002f242  2**0
                  CONTENTS, READONLY, DEBUGGING
 14 .debug_loc    00003633  00000000  00000000  00030b54  2**0
                  CONTENTS, READONLY, DEBUGGING
 15 .debug_aranges 00000640  00000000  00000000  00034188  2**3
                  CONTENTS, READONLY, DEBUGGING
 16 .debug_ranges 00000638  00000000  00000000  000347c8  2**3
                  CONTENTS, READONLY, DEBUGGING
 17 .debug_macro  0001fe28  00000000  00000000  00034e00  2**0
                  CONTENTS, READONLY, DEBUGGING
 18 .debug_line   00006553  00000000  00000000  00054c28  2**0
                  CONTENTS, READONLY, DEBUGGING
 19 .debug_str    000c0e00  00000000  00000000  0005b17b  2**0
                  CONTENTS, READONLY, DEBUGGING
 20 .comment      0000007b  00000000  00000000  0011bf7b  2**0
                  CONTENTS, READONLY
 21 .debug_frame  00001018  00000000  00000000  0011bff8  2**2
                  CONTENTS, READONLY, DEBUGGING

Disassembly of section .text:

08000188 <__do_global_dtors_aux>:
 8000188:	b510      	push	{r4, lr}
 800018a:	4c05      	ldr	r4, [pc, #20]	; (80001a0 <__do_global_dtors_aux+0x18>)
 800018c:	7823      	ldrb	r3, [r4, #0]
 800018e:	b933      	cbnz	r3, 800019e <__do_global_dtors_aux+0x16>
 8000190:	4b04      	ldr	r3, [pc, #16]	; (80001a4 <__do_global_dtors_aux+0x1c>)
 8000192:	b113      	cbz	r3, 800019a <__do_global_dtors_aux+0x12>
 8000194:	4804      	ldr	r0, [pc, #16]	; (80001a8 <__do_global_dtors_aux+0x20>)
 8000196:	f3af 8000 	nop.w
 800019a:	2301      	movs	r3, #1
 800019c:	7023      	strb	r3, [r4, #0]
 800019e:	bd10      	pop	{r4, pc}
 80001a0:	200054a4 	.word	0x200054a4
 80001a4:	00000000 	.word	0x00000000
 80001a8:	080021d8 	.word	0x080021d8

080001ac <frame_dummy>:
 80001ac:	b508      	push	{r3, lr}
 80001ae:	4b03      	ldr	r3, [pc, #12]	; (80001bc <frame_dummy+0x10>)
 80001b0:	b11b      	cbz	r3, 80001ba <frame_dummy+0xe>
 80001b2:	4903      	ldr	r1, [pc, #12]	; (80001c0 <frame_dummy+0x14>)
 80001b4:	4803      	ldr	r0, [pc, #12]	; (80001c4 <frame_dummy+0x18>)
 80001b6:	f3af 8000 	nop.w
 80001ba:	bd08      	pop	{r3, pc}
 80001bc:	00000000 	.word	0x00000000
 80001c0:	200054a8 	.word	0x200054a8
 80001c4:	080021d8 	.word	0x080021d8

080001c8 <__aeabi_uldivmod>:
 80001c8:	b953      	cbnz	r3, 80001e0 <__aeabi_uldivmod+0x18>
 80001ca:	b94a      	cbnz	r2, 80001e0 <__aeabi_uldivmod+0x18>
 80001cc:	2900      	cmp	r1, #0
 80001ce:	bf08      	it	eq
 80001d0:	2800      	cmpeq	r0, #0
 80001d2:	bf1c      	itt	ne
 80001d4:	f04f 31ff 	movne.w	r1, #4294967295	; 0xffffffff
 80001d8:	f04f 30ff 	movne.w	r0, #4294967295	; 0xffffffff
 80001dc:	f000 b972 	b.w	80004c4 <__aeabi_idiv0>
 80001e0:	f1ad 0c08 	sub.w	ip, sp, #8
 80001e4:	e96d ce04 	strd	ip, lr, [sp, #-16]!
 80001e8:	f000 f806 	bl	80001f8 <__udivmoddi4>
 80001ec:	f8dd e004 	ldr.w	lr, [sp, #4]
 80001f0:	e9dd 2302 	ldrd	r2, r3, [sp, #8]
 80001f4:	b004      	add	sp, #16
 80001f6:	4770      	bx	lr

080001f8 <__udivmoddi4>:
 80001f8:	e92d 47f0 	stmdb	sp!, {r4, r5, r6, r7, r8, r9, sl, lr}
 80001fc:	9e08      	ldr	r6, [sp, #32]
 80001fe:	4604      	mov	r4, r0
 8000200:	4688      	mov	r8, r1
 8000202:	2b00      	cmp	r3, #0
 8000204:	d14b      	bne.n	800029e <__udivmoddi4+0xa6>
 8000206:	428a      	cmp	r2, r1
 8000208:	4615      	mov	r5, r2
 800020a:	d967      	bls.n	80002dc <__udivmoddi4+0xe4>
 800020c:	fab2 f282 	clz	r2, r2
 8000210:	b14a      	cbz	r2, 8000226 <__udivmoddi4+0x2e>
 8000212:	f1c2 0720 	rsb	r7, r2, #32
 8000216:	fa01 f302 	lsl.w	r3, r1, r2
 800021a:	fa20 f707 	lsr.w	r7, r0, r7
 800021e:	4095      	lsls	r5, r2
 8000220:	ea47 0803 	orr.w	r8, r7, r3
 8000224:	4094      	lsls	r4, r2
 8000226:	ea4f 4e15 	mov.w	lr, r5, lsr #16
 800022a:	0c23      	lsrs	r3, r4, #16
 800022c:	fbb8 f7fe 	udiv	r7, r8, lr
 8000230:	fa1f fc85 	uxth.w	ip, r5
 8000234:	fb0e 8817 	mls	r8, lr, r7, r8
 8000238:	ea43 4308 	orr.w	r3, r3, r8, lsl #16
 800023c:	fb07 f10c 	mul.w	r1, r7, ip
 8000240:	4299      	cmp	r1, r3
 8000242:	d909      	bls.n	8000258 <__udivmoddi4+0x60>
 8000244:	18eb      	adds	r3, r5, r3
 8000246:	f107 30ff 	add.w	r0, r7, #4294967295	; 0xffffffff
 800024a:	f080 811b 	bcs.w	8000484 <__udivmoddi4+0x28c>
 800024e:	4299      	cmp	r1, r3
 8000250:	f240 8118 	bls.w	8000484 <__udivmoddi4+0x28c>
 8000254:	3f02      	subs	r7, #2
 8000256:	442b      	add	r3, r5
 8000258:	1a5b      	subs	r3, r3, r1
 800025a:	b2a4      	uxth	r4, r4
 800025c:	fbb3 f0fe 	udiv	r0, r3, lr
 8000260:	fb0e 3310 	mls	r3, lr, r0, r3
 8000264:	ea44 4403 	orr.w	r4, r4, r3, lsl #16
 8000268:	fb00 fc0c 	mul.w	ip, r0, ip
 800026c:	45a4      	cmp	ip, r4
 800026e:	d909      	bls.n	8000284 <__udivmoddi4+0x8c>
 8000270:	192c      	adds	r4, r5, r4
 8000272:	f100 33ff 	add.w	r3, r0, #4294967295	; 0xffffffff
 8000276:	f080 8107 	bcs.w	8000488 <__udivmoddi4+0x290>
 800027a:	45a4      	cmp	ip, r4
 800027c:	f240 8104 	bls.w	8000488 <__udivmoddi4+0x290>
 8000280:	3802      	subs	r0, #2
 8000282:	442c      	add	r4, r5
 8000284:	ea40 4007 	orr.w	r0, r0, r7, lsl #16
 8000288:	eba4 040c 	sub.w	r4, r4, ip
 800028c:	2700      	movs	r7, #0
 800028e:	b11e      	cbz	r6, 8000298 <__udivmoddi4+0xa0>
 8000290:	40d4      	lsrs	r4, r2
 8000292:	2300      	movs	r3, #0
 8000294:	e9c6 4300 	strd	r4, r3, [r6]
 8000298:	4639      	mov	r1, r7
 800029a:	e8bd 87f0 	ldmia.w	sp!, {r4, r5, r6, r7, r8, r9, sl, pc}
 800029e:	428b      	cmp	r3, r1
 80002a0:	d909      	bls.n	80002b6 <__udivmoddi4+0xbe>
 80002a2:	2e00      	cmp	r6, #0
 80002a4:	f000 80eb 	beq.w	800047e <__udivmoddi4+0x286>
 80002a8:	2700      	movs	r7, #0
 80002aa:	e9c6 0100 	strd	r0, r1, [r6]
 80002ae:	4638      	mov	r0, r7
 80002b0:	4639      	mov	r1, r7
 80002b2:	e8bd 87f0 	ldmia.w	sp!, {r4, r5, r6, r7, r8, r9, sl, pc}
 80002b6:	fab3 f783 	clz	r7, r3
 80002ba:	2f00      	cmp	r7, #0
 80002bc:	d147      	bne.n	800034e <__udivmoddi4+0x156>
 80002be:	428b      	cmp	r3, r1
 80002c0:	d302      	bcc.n	80002c8 <__udivmoddi4+0xd0>
 80002c2:	4282      	cmp	r2, r0
 80002c4:	f200 80fa 	bhi.w	80004bc <__udivmoddi4+0x2c4>
 80002c8:	1a84      	subs	r4, r0, r2
 80002ca:	eb61 0303 	sbc.w	r3, r1, r3
 80002ce:	2001      	movs	r0, #1
 80002d0:	4698      	mov	r8, r3
 80002d2:	2e00      	cmp	r6, #0
 80002d4:	d0e0      	beq.n	8000298 <__udivmoddi4+0xa0>
 80002d6:	e9c6 4800 	strd	r4, r8, [r6]
 80002da:	e7dd      	b.n	8000298 <__udivmoddi4+0xa0>
 80002dc:	b902      	cbnz	r2, 80002e0 <__udivmoddi4+0xe8>
 80002de:	deff      	udf	#255	; 0xff
 80002e0:	fab2 f282 	clz	r2, r2
 80002e4:	2a00      	cmp	r2, #0
 80002e6:	f040 808f 	bne.w	8000408 <__udivmoddi4+0x210>
 80002ea:	1b49      	subs	r1, r1, r5
 80002ec:	ea4f 4e15 	mov.w	lr, r5, lsr #16
 80002f0:	fa1f f885 	uxth.w	r8, r5
 80002f4:	2701      	movs	r7, #1
 80002f6:	fbb1 fcfe 	udiv	ip, r1, lr
 80002fa:	0c23      	lsrs	r3, r4, #16
 80002fc:	fb0e 111c 	mls	r1, lr, ip, r1
 8000300:	ea43 4301 	orr.w	r3, r3, r1, lsl #16
 8000304:	fb08 f10c 	mul.w	r1, r8, ip
 8000308:	4299      	cmp	r1, r3
 800030a:	d907      	bls.n	800031c <__udivmoddi4+0x124>
 800030c:	18eb      	adds	r3, r5, r3
 800030e:	f10c 30ff 	add.w	r0, ip, #4294967295	; 0xffffffff
 8000312:	d202      	bcs.n	800031a <__udivmoddi4+0x122>
 8000314:	4299      	cmp	r1, r3
 8000316:	f200 80cd 	bhi.w	80004b4 <__udivmoddi4+0x2bc>
 800031a:	4684      	mov	ip, r0
 800031c:	1a59      	subs	r1, r3, r1
 800031e:	b2a3      	uxth	r3, r4
 8000320:	fbb1 f0fe 	udiv	r0, r1, lr
 8000324:	fb0e 1410 	mls	r4, lr, r0, r1
 8000328:	ea43 4404 	orr.w	r4, r3, r4, lsl #16
 800032c:	fb08 f800 	mul.w	r8, r8, r0
 8000330:	45a0      	cmp	r8, r4
 8000332:	d907      	bls.n	8000344 <__udivmoddi4+0x14c>
 8000334:	192c      	adds	r4, r5, r4
 8000336:	f100 33ff 	add.w	r3, r0, #4294967295	; 0xffffffff
 800033a:	d202      	bcs.n	8000342 <__udivmoddi4+0x14a>
 800033c:	45a0      	cmp	r8, r4
 800033e:	f200 80b6 	bhi.w	80004ae <__udivmoddi4+0x2b6>
 8000342:	4618      	mov	r0, r3
 8000344:	eba4 0408 	sub.w	r4, r4, r8
 8000348:	ea40 400c 	orr.w	r0, r0, ip, lsl #16
 800034c:	e79f      	b.n	800028e <__udivmoddi4+0x96>
 800034e:	f1c7 0c20 	rsb	ip, r7, #32
 8000352:	40bb      	lsls	r3, r7
 8000354:	fa22 fe0c 	lsr.w	lr, r2, ip
 8000358:	ea4e 0e03 	orr.w	lr, lr, r3
 800035c:	fa01 f407 	lsl.w	r4, r1, r7
 8000360:	fa20 f50c 	lsr.w	r5, r0, ip
 8000364:	fa21 f30c 	lsr.w	r3, r1, ip
 8000368:	ea4f 481e 	mov.w	r8, lr, lsr #16
 800036c:	4325      	orrs	r5, r4
 800036e:	fbb3 f9f8 	udiv	r9, r3, r8
 8000372:	0c2c      	lsrs	r4, r5, #16
 8000374:	fb08 3319 	mls	r3, r8, r9, r3
 8000378:	fa1f fa8e 	uxth.w	sl, lr
 800037c:	ea44 4303 	orr.w	r3, r4, r3, lsl #16
 8000380:	fb09 f40a 	mul.w	r4, r9, sl
 8000384:	429c      	cmp	r4, r3
 8000386:	fa02 f207 	lsl.w	r2, r2, r7
 800038a:	fa00 f107 	lsl.w	r1, r0, r7
 800038e:	d90b      	bls.n	80003a8 <__udivmoddi4+0x1b0>
 8000390:	eb1e 0303 	adds.w	r3, lr, r3
 8000394:	f109 30ff 	add.w	r0, r9, #4294967295	; 0xffffffff
 8000398:	f080 8087 	bcs.w	80004aa <__udivmoddi4+0x2b2>
 800039c:	429c      	cmp	r4, r3
 800039e:	f240 8084 	bls.w	80004aa <__udivmoddi4+0x2b2>
 80003a2:	f1a9 0902 	sub.w	r9, r9, #2
 80003a6:	4473      	add	r3, lr
 80003a8:	1b1b      	subs	r3, r3, r4
 80003aa:	b2ad      	uxth	r5, r5
 80003ac:	fbb3 f0f8 	udiv	r0, r3, r8
 80003b0:	fb08 3310 	mls	r3, r8, r0, r3
 80003b4:	ea45 4403 	orr.w	r4, r5, r3, lsl #16
 80003b8:	fb00 fa0a 	mul.w	sl, r0, sl
 80003bc:	45a2      	cmp	sl, r4
 80003be:	d908      	bls.n	80003d2 <__udivmoddi4+0x1da>
 80003c0:	eb1e 0404 	adds.w	r4, lr, r4
 80003c4:	f100 33ff 	add.w	r3, r0, #4294967295	; 0xffffffff
 80003c8:	d26b      	bcs.n	80004a2 <__udivmoddi4+0x2aa>
 80003ca:	45a2      	cmp	sl, r4
 80003cc:	d969      	bls.n	80004a2 <__udivmoddi4+0x2aa>
 80003ce:	3802      	subs	r0, #2
 80003d0:	4474      	add	r4, lr
 80003d2:	ea40 4009 	orr.w	r0, r0, r9, lsl #16
 80003d6:	fba0 8902 	umull	r8, r9, r0, r2
 80003da:	eba4 040a 	sub.w	r4, r4, sl
 80003de:	454c      	cmp	r4, r9
 80003e0:	46c2      	mov	sl, r8
 80003e2:	464b      	mov	r3, r9
 80003e4:	d354      	bcc.n	8000490 <__udivmoddi4+0x298>
 80003e6:	d051      	beq.n	800048c <__udivmoddi4+0x294>
 80003e8:	2e00      	cmp	r6, #0
 80003ea:	d069      	beq.n	80004c0 <__udivmoddi4+0x2c8>
 80003ec:	ebb1 050a 	subs.w	r5, r1, sl
 80003f0:	eb64 0403 	sbc.w	r4, r4, r3
 80003f4:	fa04 fc0c 	lsl.w	ip, r4, ip
 80003f8:	40fd      	lsrs	r5, r7
 80003fa:	40fc      	lsrs	r4, r7
 80003fc:	ea4c 0505 	orr.w	r5, ip, r5
 8000400:	e9c6 5400 	strd	r5, r4, [r6]
 8000404:	2700      	movs	r7, #0
 8000406:	e747      	b.n	8000298 <__udivmoddi4+0xa0>
 8000408:	f1c2 0320 	rsb	r3, r2, #32
 800040c:	fa20 f703 	lsr.w	r7, r0, r3
 8000410:	4095      	lsls	r5, r2
 8000412:	fa01 f002 	lsl.w	r0, r1, r2
 8000416:	fa21 f303 	lsr.w	r3, r1, r3
 800041a:	ea4f 4e15 	mov.w	lr, r5, lsr #16
 800041e:	4338      	orrs	r0, r7
 8000420:	0c01      	lsrs	r1, r0, #16
 8000422:	fbb3 f7fe 	udiv	r7, r3, lr
 8000426:	fa1f f885 	uxth.w	r8, r5
 800042a:	fb0e 3317 	mls	r3, lr, r7, r3
 800042e:	ea41 4103 	orr.w	r1, r1, r3, lsl #16
 8000432:	fb07 f308 	mul.w	r3, r7, r8
 8000436:	428b      	cmp	r3, r1
 8000438:	fa04 f402 	lsl.w	r4, r4, r2
 800043c:	d907      	bls.n	800044e <__udivmoddi4+0x256>
 800043e:	1869      	adds	r1, r5, r1
 8000440:	f107 3cff 	add.w	ip, r7, #4294967295	; 0xffffffff
 8000444:	d22f      	bcs.n	80004a6 <__udivmoddi4+0x2ae>
 8000446:	428b      	cmp	r3, r1
 8000448:	d92d      	bls.n	80004a6 <__udivmoddi4+0x2ae>
 800044a:	3f02      	subs	r7, #2
 800044c:	4429      	add	r1, r5
 800044e:	1acb      	subs	r3, r1, r3
 8000450:	b281      	uxth	r1, r0
 8000452:	fbb3 f0fe 	udiv	r0, r3, lr
 8000456:	fb0e 3310 	mls	r3, lr, r0, r3
 800045a:	ea41 4103 	orr.w	r1, r1, r3, lsl #16
 800045e:	fb00 f308 	mul.w	r3, r0, r8
 8000462:	428b      	cmp	r3, r1
 8000464:	d907      	bls.n	8000476 <__udivmoddi4+0x27e>
 8000466:	1869      	adds	r1, r5, r1
 8000468:	f100 3cff 	add.w	ip, r0, #4294967295	; 0xffffffff
 800046c:	d217      	bcs.n	800049e <__udivmoddi4+0x2a6>
 800046e:	428b      	cmp	r3, r1
 8000470:	d915      	bls.n	800049e <__udivmoddi4+0x2a6>
 8000472:	3802      	subs	r0, #2
 8000474:	4429      	add	r1, r5
 8000476:	1ac9      	subs	r1, r1, r3
 8000478:	ea40 4707 	orr.w	r7, r0, r7, lsl #16
 800047c:	e73b      	b.n	80002f6 <__udivmoddi4+0xfe>
 800047e:	4637      	mov	r7, r6
 8000480:	4630      	mov	r0, r6
 8000482:	e709      	b.n	8000298 <__udivmoddi4+0xa0>
 8000484:	4607      	mov	r7, r0
 8000486:	e6e7      	b.n	8000258 <__udivmoddi4+0x60>
 8000488:	4618      	mov	r0, r3
 800048a:	e6fb      	b.n	8000284 <__udivmoddi4+0x8c>
 800048c:	4541      	cmp	r1, r8
 800048e:	d2ab      	bcs.n	80003e8 <__udivmoddi4+0x1f0>
 8000490:	ebb8 0a02 	subs.w	sl, r8, r2
 8000494:	eb69 020e 	sbc.w	r2, r9, lr
 8000498:	3801      	subs	r0, #1
 800049a:	4613      	mov	r3, r2
 800049c:	e7a4      	b.n	80003e8 <__udivmoddi4+0x1f0>
 800049e:	4660      	mov	r0, ip
 80004a0:	e7e9      	b.n	8000476 <__udivmoddi4+0x27e>
 80004a2:	4618      	mov	r0, r3
 80004a4:	e795      	b.n	80003d2 <__udivmoddi4+0x1da>
 80004a6:	4667      	mov	r7, ip
 80004a8:	e7d1      	b.n	800044e <__udivmoddi4+0x256>
 80004aa:	4681      	mov	r9, r0
 80004ac:	e77c      	b.n	80003a8 <__udivmoddi4+0x1b0>
 80004ae:	3802      	subs	r0, #2
 80004b0:	442c      	add	r4, r5
 80004b2:	e747      	b.n	8000344 <__udivmoddi4+0x14c>
 80004b4:	f1ac 0c02 	sub.w	ip, ip, #2
 80004b8:	442b      	add	r3, r5
 80004ba:	e72f      	b.n	800031c <__udivmoddi4+0x124>
 80004bc:	4638      	mov	r0, r7
 80004be:	e708      	b.n	80002d2 <__udivmoddi4+0xda>
 80004c0:	4637      	mov	r7, r6
 80004c2:	e6e9      	b.n	8000298 <__udivmoddi4+0xa0>

080004c4 <__aeabi_idiv0>:
 80004c4:	4770      	bx	lr
 80004c6:	bf00      	nop

080004c8 <SystemClock_Config>:
/**
  * @brief System Clock Configuration
  * @retval None
  */
void SystemClock_Config(void)
{
 80004c8:	b530      	push	{r4, r5, lr}
 80004ca:	b095      	sub	sp, #84	; 0x54
  RCC_OscInitTypeDef RCC_OscInitStruct = {0};
 80004cc:	2230      	movs	r2, #48	; 0x30
 80004ce:	2100      	movs	r1, #0
 80004d0:	a808      	add	r0, sp, #32
 80004d2:	f001 fe78 	bl	80021c6 <memset>
  RCC_ClkInitTypeDef RCC_ClkInitStruct = {0};
 80004d6:	2400      	movs	r4, #0
 80004d8:	9403      	str	r4, [sp, #12]
 80004da:	9404      	str	r4, [sp, #16]
 80004dc:	9405      	str	r4, [sp, #20]
 80004de:	9406      	str	r4, [sp, #24]
 80004e0:	9407      	str	r4, [sp, #28]

  /** Configure the main internal regulator output voltage
  */
  __HAL_RCC_PWR_CLK_ENABLE();
 80004e2:	9401      	str	r4, [sp, #4]
 80004e4:	4b1c      	ldr	r3, [pc, #112]	; (8000558 <SystemClock_Config+0x90>)
 80004e6:	6c1a      	ldr	r2, [r3, #64]	; 0x40
 80004e8:	f042 5280 	orr.w	r2, r2, #268435456	; 0x10000000
 80004ec:	641a      	str	r2, [r3, #64]	; 0x40
 80004ee:	6c1b      	ldr	r3, [r3, #64]	; 0x40
 80004f0:	f003 5380 	and.w	r3, r3, #268435456	; 0x10000000
 80004f4:	9301      	str	r3, [sp, #4]
 80004f6:	9b01      	ldr	r3, [sp, #4]
  __HAL_PWR_VOLTAGESCALING_CONFIG(PWR_REGULATOR_VOLTAGE_SCALE1);
 80004f8:	9402      	str	r4, [sp, #8]
 80004fa:	4b18      	ldr	r3, [pc, #96]	; (800055c <SystemClock_Config+0x94>)
 80004fc:	681a      	ldr	r2, [r3, #0]
 80004fe:	f442 4280 	orr.w	r2, r2, #16384	; 0x4000
 8000502:	601a      	str	r2, [r3, #0]
 8000504:	681b      	ldr	r3, [r3, #0]
 8000506:	f403 4380 	and.w	r3, r3, #16384	; 0x4000
 800050a:	9302      	str	r3, [sp, #8]
 800050c:	9b02      	ldr	r3, [sp, #8]
  /** Initializes the RCC Oscillators according to the specified parameters
  * in the RCC_OscInitTypeDef structure.
  */
  RCC_OscInitStruct.OscillatorType = RCC_OSCILLATORTYPE_HSI|RCC_OSCILLATORTYPE_LSI;
 800050e:	230a      	movs	r3, #10
 8000510:	9308      	str	r3, [sp, #32]
  RCC_OscInitStruct.HSIState = RCC_HSI_ON;
 8000512:	2301      	movs	r3, #1
 8000514:	930b      	str	r3, [sp, #44]	; 0x2c
  RCC_OscInitStruct.HSICalibrationValue = RCC_HSICALIBRATION_DEFAULT;
 8000516:	2210      	movs	r2, #16
 8000518:	920c      	str	r2, [sp, #48]	; 0x30
  RCC_OscInitStruct.LSIState = RCC_LSI_ON;
 800051a:	930d      	str	r3, [sp, #52]	; 0x34
  RCC_OscInitStruct.PLL.PLLState = RCC_PLL_ON;
 800051c:	2502      	movs	r5, #2
 800051e:	950e      	str	r5, [sp, #56]	; 0x38
  RCC_OscInitStruct.PLL.PLLSource = RCC_PLLSOURCE_HSI;
 8000520:	940f      	str	r4, [sp, #60]	; 0x3c
  RCC_OscInitStruct.PLL.PLLM = 8;
 8000522:	2308      	movs	r3, #8
 8000524:	9310      	str	r3, [sp, #64]	; 0x40
  RCC_OscInitStruct.PLL.PLLN = 168;
 8000526:	23a8      	movs	r3, #168	; 0xa8
 8000528:	9311      	str	r3, [sp, #68]	; 0x44
  RCC_OscInitStruct.PLL.PLLP = RCC_PLLP_DIV2;
 800052a:	9512      	str	r5, [sp, #72]	; 0x48
  RCC_OscInitStruct.PLL.PLLQ = 4;
 800052c:	2304      	movs	r3, #4
 800052e:	9313      	str	r3, [sp, #76]	; 0x4c
  if (HAL_RCC_OscConfig(&RCC_OscInitStruct) != HAL_OK)
 8000530:	a808      	add	r0, sp, #32
 8000532:	f001 f853 	bl	80015dc <HAL_RCC_OscConfig>
  {
    Error_Handler();
  }
  /** Initializes the CPU, AHB and APB buses clocks
  */
  RCC_ClkInitStruct.ClockType = RCC_CLOCKTYPE_HCLK|RCC_CLOCKTYPE_SYSCLK
 8000536:	230f      	movs	r3, #15
 8000538:	9303      	str	r3, [sp, #12]
                              |RCC_CLOCKTYPE_PCLK1|RCC_CLOCKTYPE_PCLK2;
  RCC_ClkInitStruct.SYSCLKSource = RCC_SYSCLKSOURCE_PLLCLK;
 800053a:	9504      	str	r5, [sp, #16]
  RCC_ClkInitStruct.AHBCLKDivider = RCC_SYSCLK_DIV1;
 800053c:	9405      	str	r4, [sp, #20]
  RCC_ClkInitStruct.APB1CLKDivider = RCC_HCLK_DIV4;
 800053e:	f44f 53a0 	mov.w	r3, #5120	; 0x1400
 8000542:	9306      	str	r3, [sp, #24]
  RCC_ClkInitStruct.APB2CLKDivider = RCC_HCLK_DIV2;
 8000544:	f44f 5380 	mov.w	r3, #4096	; 0x1000
 8000548:	9307      	str	r3, [sp, #28]

  if (HAL_RCC_ClockConfig(&RCC_ClkInitStruct, FLASH_LATENCY_5) != HAL_OK)
 800054a:	2105      	movs	r1, #5
 800054c:	a803      	add	r0, sp, #12
 800054e:	f001 faa9 	bl	8001aa4 <HAL_RCC_ClockConfig>
  {
    Error_Handler();
  }
}
 8000552:	b015      	add	sp, #84	; 0x54
 8000554:	bd30      	pop	{r4, r5, pc}
 8000556:	bf00      	nop
 8000558:	40023800 	.word	0x40023800
 800055c:	40007000 	.word	0x40007000

08000560 <LED_SendData>:
	TIM8->BDTR|= TIM_BDTR_MOE;     		//MOE: Main output enable
	TIM8->CR1 &= ~TIM_CR1_CEN; 			//Bit 0 CEN: Counter enable
}

void LED_SendData( uint16_t data_len )
{
 8000560:	e92d 43f8 	stmdb	sp!, {r3, r4, r5, r6, r7, r8, r9, lr}
	if (!((TIM1->CR1 & TIM_CR1_CEN)||(TIM4->CR1 & TIM_CR1_CEN)))
 8000564:	4b66      	ldr	r3, [pc, #408]	; (8000700 <LED_SendData+0x1a0>)
 8000566:	681b      	ldr	r3, [r3, #0]
 8000568:	f013 0f01 	tst.w	r3, #1
 800056c:	d104      	bne.n	8000578 <LED_SendData+0x18>
 800056e:	4b65      	ldr	r3, [pc, #404]	; (8000704 <LED_SendData+0x1a4>)
 8000570:	681b      	ldr	r3, [r3, #0]
 8000572:	f013 0f01 	tst.w	r3, #1
 8000576:	d001      	beq.n	800057c <LED_SendData+0x1c>
		TIM8->CCR4 = local.pulse[(0x80 & local.data_buf[7][local.byte_count] << local.bit_count) >> 7];

		TIM1->CR1 |= TIM_CR1_CEN;
		TIM8->CR1 |= TIM_CR1_CEN;
	}
}
 8000578:	e8bd 83f8 	ldmia.w	sp!, {r3, r4, r5, r6, r7, r8, r9, pc}
 800057c:	4605      	mov	r5, r0
		memcpy( local.buff_s.data_buf, add_leds_buff.data_buf, PIXELS_NUM*24);
 800057e:	4c62      	ldr	r4, [pc, #392]	; (8000708 <LED_SendData+0x1a8>)
 8000580:	f245 4260 	movw	r2, #21600	; 0x5460
 8000584:	4961      	ldr	r1, [pc, #388]	; (800070c <LED_SendData+0x1ac>)
 8000586:	4620      	mov	r0, r4
 8000588:	f001 fe12 	bl	80021b0 <memcpy>
		local.data_buf[0] = (uint8_t *)local.buff_s.led_data.line1;
 800058c:	f245 4364 	movw	r3, #21604	; 0x5464
 8000590:	50e4      	str	r4, [r4, r3]
		local.data_buf[1] = (uint8_t *)local.buff_s.led_data.line2;
 8000592:	f604 298c 	addw	r9, r4, #2700	; 0xa8c
 8000596:	f245 4368 	movw	r3, #21608	; 0x5468
 800059a:	f844 9003 	str.w	r9, [r4, r3]
		local.data_buf[2] = (uint8_t *)local.buff_s.led_data.line3;
 800059e:	f245 486c 	movw	r8, #21612	; 0x546c
 80005a2:	f609 238c 	addw	r3, r9, #2700	; 0xa8c
 80005a6:	f844 3008 	str.w	r3, [r4, r8]
		local.data_buf[3] = (uint8_t *)local.buff_s.led_data.line4;
 80005aa:	f245 4e70 	movw	lr, #21616	; 0x5470
 80005ae:	f603 238c 	addw	r3, r3, #2700	; 0xa8c
 80005b2:	f844 300e 	str.w	r3, [r4, lr]
		local.data_buf[4] = (uint8_t *)local.buff_s.led_data.line5;
 80005b6:	f245 4174 	movw	r1, #21620	; 0x5474
 80005ba:	f603 238c 	addw	r3, r3, #2700	; 0xa8c
 80005be:	5063      	str	r3, [r4, r1]
		local.data_buf[5] = (uint8_t *)local.buff_s.led_data.line6;
 80005c0:	f245 4c78 	movw	ip, #21624	; 0x5478
 80005c4:	f603 238c 	addw	r3, r3, #2700	; 0xa8c
 80005c8:	f844 300c 	str.w	r3, [r4, ip]
		local.data_buf[6] = (uint8_t *)local.buff_s.led_data.line7;
 80005cc:	f245 477c 	movw	r7, #21628	; 0x547c
 80005d0:	f603 238c 	addw	r3, r3, #2700	; 0xa8c
 80005d4:	51e3      	str	r3, [r4, r7]
		local.data_buf[7] = (uint8_t *)local.buff_s.led_data.line8;
 80005d6:	f504 43a9 	add.w	r3, r4, #21632	; 0x5480
 80005da:	f6a3 26ac 	subw	r6, r3, #2732	; 0xaac
 80005de:	601e      	str	r6, [r3, #0]
		local.data_len = data_len/8;
 80005e0:	08ed      	lsrs	r5, r5, #3
 80005e2:	f245 4384 	movw	r3, #21636	; 0x5484
 80005e6:	52e5      	strh	r5, [r4, r3]
		local.send_start = 1;
 80005e8:	f245 4392 	movw	r3, #21650	; 0x5492
 80005ec:	2201      	movs	r2, #1
 80005ee:	54e2      	strb	r2, [r4, r3]
		local.mem_buf_rd = 0;
 80005f0:	2300      	movs	r3, #0
 80005f2:	f245 4294 	movw	r2, #21652	; 0x5494
 80005f6:	54a3      	strb	r3, [r4, r2]
		local.bit_count = 0;
 80005f8:	f245 428a 	movw	r2, #21642	; 0x548a
 80005fc:	54a3      	strb	r3, [r4, r2]
		local.byte_count = 0;
 80005fe:	f245 458c 	movw	r5, #21644	; 0x548c
 8000602:	5363      	strh	r3, [r4, r5]
		local.last_bit = 0;
 8000604:	f245 4093 	movw	r0, #21651	; 0x5493
 8000608:	5423      	strb	r3, [r4, r0]
		TIM1->CCR1 = local.pulse[(0x80 & local.data_buf[0][local.byte_count] << local.bit_count) >> 7];
 800060a:	7823      	ldrb	r3, [r4, #0]
 800060c:	11db      	asrs	r3, r3, #7
 800060e:	f503 5329 	add.w	r3, r3, #10816	; 0x2a40
 8000612:	eb04 0343 	add.w	r3, r4, r3, lsl #1
 8000616:	88db      	ldrh	r3, [r3, #6]
 8000618:	4839      	ldr	r0, [pc, #228]	; (8000700 <LED_SendData+0x1a0>)
 800061a:	6343      	str	r3, [r0, #52]	; 0x34
		TIM1->CCR2 = local.pulse[(0x80 & local.data_buf[1][local.byte_count] << local.bit_count) >> 7];
 800061c:	f894 3a8c 	ldrb.w	r3, [r4, #2700]	; 0xa8c
 8000620:	f814 9002 	ldrb.w	r9, [r4, r2]
 8000624:	fa03 f309 	lsl.w	r3, r3, r9
 8000628:	f3c3 13c0 	ubfx	r3, r3, #7, #1
 800062c:	f503 5329 	add.w	r3, r3, #10816	; 0x2a40
 8000630:	eb04 0343 	add.w	r3, r4, r3, lsl #1
 8000634:	88db      	ldrh	r3, [r3, #6]
 8000636:	6383      	str	r3, [r0, #56]	; 0x38
		TIM1->CCR3 = local.pulse[(0x80 & local.data_buf[2][local.byte_count] << local.bit_count) >> 7];
 8000638:	5b63      	ldrh	r3, [r4, r5]
 800063a:	f854 8008 	ldr.w	r8, [r4, r8]
 800063e:	f818 3003 	ldrb.w	r3, [r8, r3]
 8000642:	f814 8002 	ldrb.w	r8, [r4, r2]
 8000646:	fa03 f308 	lsl.w	r3, r3, r8
 800064a:	f3c3 13c0 	ubfx	r3, r3, #7, #1
 800064e:	f503 5329 	add.w	r3, r3, #10816	; 0x2a40
 8000652:	eb04 0343 	add.w	r3, r4, r3, lsl #1
 8000656:	88db      	ldrh	r3, [r3, #6]
 8000658:	63c3      	str	r3, [r0, #60]	; 0x3c
		TIM1->CCR4 = local.pulse[(0x80 & local.data_buf[3][local.byte_count] << local.bit_count) >> 7];
 800065a:	5b63      	ldrh	r3, [r4, r5]
 800065c:	f854 e00e 	ldr.w	lr, [r4, lr]
 8000660:	f81e 3003 	ldrb.w	r3, [lr, r3]
 8000664:	f814 e002 	ldrb.w	lr, [r4, r2]
 8000668:	fa03 f30e 	lsl.w	r3, r3, lr
 800066c:	f3c3 13c0 	ubfx	r3, r3, #7, #1
 8000670:	f503 5329 	add.w	r3, r3, #10816	; 0x2a40
 8000674:	eb04 0343 	add.w	r3, r4, r3, lsl #1
 8000678:	88db      	ldrh	r3, [r3, #6]
 800067a:	6403      	str	r3, [r0, #64]	; 0x40
		TIM8->CCR1 = local.pulse[(0x80 & local.data_buf[4][local.byte_count] << local.bit_count) >> 7];
 800067c:	5b63      	ldrh	r3, [r4, r5]
 800067e:	5861      	ldr	r1, [r4, r1]
 8000680:	5ccb      	ldrb	r3, [r1, r3]
 8000682:	5ca1      	ldrb	r1, [r4, r2]
 8000684:	408b      	lsls	r3, r1
 8000686:	f3c3 13c0 	ubfx	r3, r3, #7, #1
 800068a:	f503 5329 	add.w	r3, r3, #10816	; 0x2a40
 800068e:	eb04 0343 	add.w	r3, r4, r3, lsl #1
 8000692:	88db      	ldrh	r3, [r3, #6]
 8000694:	491e      	ldr	r1, [pc, #120]	; (8000710 <LED_SendData+0x1b0>)
 8000696:	634b      	str	r3, [r1, #52]	; 0x34
		TIM8->CCR2 = local.pulse[(0x80 & local.data_buf[5][local.byte_count] << local.bit_count) >> 7];
 8000698:	5b63      	ldrh	r3, [r4, r5]
 800069a:	f854 c00c 	ldr.w	ip, [r4, ip]
 800069e:	f81c 3003 	ldrb.w	r3, [ip, r3]
 80006a2:	f814 c002 	ldrb.w	ip, [r4, r2]
 80006a6:	fa03 f30c 	lsl.w	r3, r3, ip
 80006aa:	f3c3 13c0 	ubfx	r3, r3, #7, #1
 80006ae:	f503 5329 	add.w	r3, r3, #10816	; 0x2a40
 80006b2:	eb04 0343 	add.w	r3, r4, r3, lsl #1
 80006b6:	88db      	ldrh	r3, [r3, #6]
 80006b8:	638b      	str	r3, [r1, #56]	; 0x38
		TIM8->CCR3 = local.pulse[(0x80 & local.data_buf[6][local.byte_count] << local.bit_count) >> 7];
 80006ba:	5b63      	ldrh	r3, [r4, r5]
 80006bc:	59e7      	ldr	r7, [r4, r7]
 80006be:	5cfb      	ldrb	r3, [r7, r3]
 80006c0:	5ca7      	ldrb	r7, [r4, r2]
 80006c2:	40bb      	lsls	r3, r7
 80006c4:	f3c3 13c0 	ubfx	r3, r3, #7, #1
 80006c8:	f503 5329 	add.w	r3, r3, #10816	; 0x2a40
 80006cc:	eb04 0343 	add.w	r3, r4, r3, lsl #1
 80006d0:	88db      	ldrh	r3, [r3, #6]
 80006d2:	63cb      	str	r3, [r1, #60]	; 0x3c
		TIM8->CCR4 = local.pulse[(0x80 & local.data_buf[7][local.byte_count] << local.bit_count) >> 7];
 80006d4:	5b63      	ldrh	r3, [r4, r5]
 80006d6:	5cf3      	ldrb	r3, [r6, r3]
 80006d8:	5ca2      	ldrb	r2, [r4, r2]
 80006da:	4093      	lsls	r3, r2
 80006dc:	f3c3 13c0 	ubfx	r3, r3, #7, #1
 80006e0:	f503 5329 	add.w	r3, r3, #10816	; 0x2a40
 80006e4:	eb04 0443 	add.w	r4, r4, r3, lsl #1
 80006e8:	88e3      	ldrh	r3, [r4, #6]
 80006ea:	640b      	str	r3, [r1, #64]	; 0x40
		TIM1->CR1 |= TIM_CR1_CEN;
 80006ec:	6803      	ldr	r3, [r0, #0]
 80006ee:	f043 0301 	orr.w	r3, r3, #1
 80006f2:	6003      	str	r3, [r0, #0]
		TIM8->CR1 |= TIM_CR1_CEN;
 80006f4:	680b      	ldr	r3, [r1, #0]
 80006f6:	f043 0301 	orr.w	r3, r3, #1
 80006fa:	600b      	str	r3, [r1, #0]
}
 80006fc:	e73c      	b.n	8000578 <LED_SendData+0x18>
 80006fe:	bf00      	nop
 8000700:	40010000 	.word	0x40010000
 8000704:	40000800 	.word	0x40000800
 8000708:	20000000 	.word	0x20000000
 800070c:	200054c0 	.word	0x200054c0
 8000710:	40010400 	.word	0x40010400

08000714 <TIM1_UPD_Servo_Set>:
	TIM8->CR1 &= ~TIM_CR1_CEN;

	local.send_start = 0;
}
void TIM1_UPD_Servo_Set( void )
{
 8000714:	b430      	push	{r4, r5}
	if(local.bit_count++ > 6)
 8000716:	4a59      	ldr	r2, [pc, #356]	; (800087c <TIM1_UPD_Servo_Set+0x168>)
 8000718:	f245 438a 	movw	r3, #21642	; 0x548a
 800071c:	5cd3      	ldrb	r3, [r2, r3]
 800071e:	2b06      	cmp	r3, #6
 8000720:	f200 8091 	bhi.w	8000846 <TIM1_UPD_Servo_Set+0x132>
 8000724:	3301      	adds	r3, #1
 8000726:	4611      	mov	r1, r2
 8000728:	f245 428a 	movw	r2, #21642	; 0x548a
 800072c:	548b      	strb	r3, [r1, r2]
	{
		local.bit_count = 0;
		local.byte_count++;
	}
	TIM1->CCR1 = local.pulse[(0x80 & local.data_buf[0][local.byte_count] << local.bit_count) >> 7];
 800072e:	4b53      	ldr	r3, [pc, #332]	; (800087c <TIM1_UPD_Servo_Set+0x168>)
 8000730:	f245 428c 	movw	r2, #21644	; 0x548c
 8000734:	5a99      	ldrh	r1, [r3, r2]
 8000736:	f245 4064 	movw	r0, #21604	; 0x5464
 800073a:	5818      	ldr	r0, [r3, r0]
 800073c:	5c41      	ldrb	r1, [r0, r1]
 800073e:	f245 448a 	movw	r4, #21642	; 0x548a
 8000742:	5d18      	ldrb	r0, [r3, r4]
 8000744:	4081      	lsls	r1, r0
 8000746:	f3c1 11c0 	ubfx	r1, r1, #7, #1
 800074a:	f501 5129 	add.w	r1, r1, #10816	; 0x2a40
 800074e:	eb03 0141 	add.w	r1, r3, r1, lsl #1
 8000752:	88c9      	ldrh	r1, [r1, #6]
 8000754:	484a      	ldr	r0, [pc, #296]	; (8000880 <TIM1_UPD_Servo_Set+0x16c>)
 8000756:	6341      	str	r1, [r0, #52]	; 0x34
	TIM1->CCR2 = local.pulse[(0x80 & local.data_buf[1][local.byte_count] << local.bit_count) >> 7];
 8000758:	5a99      	ldrh	r1, [r3, r2]
 800075a:	f245 4568 	movw	r5, #21608	; 0x5468
 800075e:	595d      	ldr	r5, [r3, r5]
 8000760:	5c69      	ldrb	r1, [r5, r1]
 8000762:	5d1d      	ldrb	r5, [r3, r4]
 8000764:	40a9      	lsls	r1, r5
 8000766:	f3c1 11c0 	ubfx	r1, r1, #7, #1
 800076a:	f501 5129 	add.w	r1, r1, #10816	; 0x2a40
 800076e:	eb03 0141 	add.w	r1, r3, r1, lsl #1
 8000772:	88c9      	ldrh	r1, [r1, #6]
 8000774:	6381      	str	r1, [r0, #56]	; 0x38
	TIM1->CCR3 = local.pulse[(0x80 & local.data_buf[2][local.byte_count] << local.bit_count) >> 7];
 8000776:	5a99      	ldrh	r1, [r3, r2]
 8000778:	f245 456c 	movw	r5, #21612	; 0x546c
 800077c:	595d      	ldr	r5, [r3, r5]
 800077e:	5c69      	ldrb	r1, [r5, r1]
 8000780:	5d1d      	ldrb	r5, [r3, r4]
 8000782:	40a9      	lsls	r1, r5
 8000784:	f3c1 11c0 	ubfx	r1, r1, #7, #1
 8000788:	f501 5129 	add.w	r1, r1, #10816	; 0x2a40
 800078c:	eb03 0141 	add.w	r1, r3, r1, lsl #1
 8000790:	88c9      	ldrh	r1, [r1, #6]
 8000792:	63c1      	str	r1, [r0, #60]	; 0x3c
	TIM1->CCR4 = local.pulse[(0x80 & local.data_buf[3][local.byte_count] << local.bit_count) >> 7];
 8000794:	5a99      	ldrh	r1, [r3, r2]
 8000796:	f245 4570 	movw	r5, #21616	; 0x5470
 800079a:	595d      	ldr	r5, [r3, r5]
 800079c:	5c69      	ldrb	r1, [r5, r1]
 800079e:	5d1d      	ldrb	r5, [r3, r4]
 80007a0:	40a9      	lsls	r1, r5
 80007a2:	f3c1 11c0 	ubfx	r1, r1, #7, #1
 80007a6:	f501 5129 	add.w	r1, r1, #10816	; 0x2a40
 80007aa:	eb03 0141 	add.w	r1, r3, r1, lsl #1
 80007ae:	88c9      	ldrh	r1, [r1, #6]
 80007b0:	6401      	str	r1, [r0, #64]	; 0x40

	TIM8->CCR1 = local.pulse[(0x80 & local.data_buf[4][local.byte_count] << local.bit_count) >> 7];
 80007b2:	5a99      	ldrh	r1, [r3, r2]
 80007b4:	f245 4074 	movw	r0, #21620	; 0x5474
 80007b8:	5818      	ldr	r0, [r3, r0]
 80007ba:	5c41      	ldrb	r1, [r0, r1]
 80007bc:	5d18      	ldrb	r0, [r3, r4]
 80007be:	4081      	lsls	r1, r0
 80007c0:	f3c1 11c0 	ubfx	r1, r1, #7, #1
 80007c4:	f501 5129 	add.w	r1, r1, #10816	; 0x2a40
 80007c8:	eb03 0141 	add.w	r1, r3, r1, lsl #1
 80007cc:	88c9      	ldrh	r1, [r1, #6]
 80007ce:	482d      	ldr	r0, [pc, #180]	; (8000884 <TIM1_UPD_Servo_Set+0x170>)
 80007d0:	6341      	str	r1, [r0, #52]	; 0x34
	TIM8->CCR2 = local.pulse[(0x80 & local.data_buf[5][local.byte_count] << local.bit_count) >> 7];
 80007d2:	5a99      	ldrh	r1, [r3, r2]
 80007d4:	f245 4578 	movw	r5, #21624	; 0x5478
 80007d8:	595d      	ldr	r5, [r3, r5]
 80007da:	5c69      	ldrb	r1, [r5, r1]
 80007dc:	5d1d      	ldrb	r5, [r3, r4]
 80007de:	40a9      	lsls	r1, r5
 80007e0:	f3c1 11c0 	ubfx	r1, r1, #7, #1
 80007e4:	f501 5129 	add.w	r1, r1, #10816	; 0x2a40
 80007e8:	eb03 0141 	add.w	r1, r3, r1, lsl #1
 80007ec:	88c9      	ldrh	r1, [r1, #6]
 80007ee:	6381      	str	r1, [r0, #56]	; 0x38
	TIM8->CCR3 = local.pulse[(0x80 & local.data_buf[6][local.byte_count] << local.bit_count) >> 7];
 80007f0:	5a99      	ldrh	r1, [r3, r2]
 80007f2:	f245 457c 	movw	r5, #21628	; 0x547c
 80007f6:	595d      	ldr	r5, [r3, r5]
 80007f8:	5c69      	ldrb	r1, [r5, r1]
 80007fa:	5d1d      	ldrb	r5, [r3, r4]
 80007fc:	40a9      	lsls	r1, r5
 80007fe:	f3c1 11c0 	ubfx	r1, r1, #7, #1
 8000802:	f501 5129 	add.w	r1, r1, #10816	; 0x2a40
 8000806:	eb03 0141 	add.w	r1, r3, r1, lsl #1
 800080a:	88c9      	ldrh	r1, [r1, #6]
 800080c:	63c1      	str	r1, [r0, #60]	; 0x3c
	TIM8->CCR4 = local.pulse[(0x80 & local.data_buf[7][local.byte_count] << local.bit_count) >> 7];
 800080e:	5a99      	ldrh	r1, [r3, r2]
 8000810:	f503 45a9 	add.w	r5, r3, #21632	; 0x5480
 8000814:	682d      	ldr	r5, [r5, #0]
 8000816:	5c69      	ldrb	r1, [r5, r1]
 8000818:	5d1c      	ldrb	r4, [r3, r4]
 800081a:	40a1      	lsls	r1, r4
 800081c:	f3c1 11c0 	ubfx	r1, r1, #7, #1
 8000820:	f501 5129 	add.w	r1, r1, #10816	; 0x2a40
 8000824:	eb03 0141 	add.w	r1, r3, r1, lsl #1
 8000828:	88c9      	ldrh	r1, [r1, #6]
 800082a:	6401      	str	r1, [r0, #64]	; 0x40

	( local.byte_count == local.data_len )?( TIM_SendEnd() ):( TIM1->CR1 |= TIM_CR1_CEN );
 800082c:	5a9a      	ldrh	r2, [r3, r2]
 800082e:	f245 4184 	movw	r1, #21636	; 0x5484
 8000832:	5a5b      	ldrh	r3, [r3, r1]
 8000834:	429a      	cmp	r2, r3
 8000836:	d011      	beq.n	800085c <TIM1_UPD_Servo_Set+0x148>
 8000838:	4a11      	ldr	r2, [pc, #68]	; (8000880 <TIM1_UPD_Servo_Set+0x16c>)
 800083a:	6813      	ldr	r3, [r2, #0]
 800083c:	f043 0301 	orr.w	r3, r3, #1
 8000840:	6013      	str	r3, [r2, #0]
}
 8000842:	bc30      	pop	{r4, r5}
 8000844:	4770      	bx	lr
		local.bit_count = 0;
 8000846:	4b0d      	ldr	r3, [pc, #52]	; (800087c <TIM1_UPD_Servo_Set+0x168>)
 8000848:	f245 428a 	movw	r2, #21642	; 0x548a
 800084c:	2100      	movs	r1, #0
 800084e:	5499      	strb	r1, [r3, r2]
		local.byte_count++;
 8000850:	f245 418c 	movw	r1, #21644	; 0x548c
 8000854:	5a5a      	ldrh	r2, [r3, r1]
 8000856:	3201      	adds	r2, #1
 8000858:	525a      	strh	r2, [r3, r1]
 800085a:	e768      	b.n	800072e <TIM1_UPD_Servo_Set+0x1a>
	TIM1->CR1 &= ~TIM_CR1_CEN;
 800085c:	4a08      	ldr	r2, [pc, #32]	; (8000880 <TIM1_UPD_Servo_Set+0x16c>)
 800085e:	6813      	ldr	r3, [r2, #0]
 8000860:	f023 0301 	bic.w	r3, r3, #1
 8000864:	6013      	str	r3, [r2, #0]
	TIM8->CR1 &= ~TIM_CR1_CEN;
 8000866:	6803      	ldr	r3, [r0, #0]
 8000868:	f023 0301 	bic.w	r3, r3, #1
 800086c:	6003      	str	r3, [r0, #0]
	local.send_start = 0;
 800086e:	4a03      	ldr	r2, [pc, #12]	; (800087c <TIM1_UPD_Servo_Set+0x168>)
 8000870:	f245 4392 	movw	r3, #21650	; 0x5492
 8000874:	2100      	movs	r1, #0
 8000876:	54d1      	strb	r1, [r2, r3]
 8000878:	e7e3      	b.n	8000842 <TIM1_UPD_Servo_Set+0x12e>
 800087a:	bf00      	nop
 800087c:	20000000 	.word	0x20000000
 8000880:	40010000 	.word	0x40010000
 8000884:	40010400 	.word	0x40010400

08000888 <HAL_SPI_RxCpltCallback>:
void HAL_SPI_RxCpltCallback( SPI_HandleTypeDef *hspi )
{
	if (hspi == &hspi1)
 8000888:	4b04      	ldr	r3, [pc, #16]	; (800089c <HAL_SPI_RxCpltCallback+0x14>)
 800088a:	4283      	cmp	r3, r0
 800088c:	d000      	beq.n	8000890 <HAL_SPI_RxCpltCallback+0x8>
	{
//		HAL_SPI_Receive_DMA(&hspi1,add_leds_buff.data_buf, PIXELS_NUM*24);
		local.mem_buf_rd = 1;
	}
}
 800088e:	4770      	bx	lr
		local.mem_buf_rd = 1;
 8000890:	4a03      	ldr	r2, [pc, #12]	; (80008a0 <HAL_SPI_RxCpltCallback+0x18>)
 8000892:	f245 4394 	movw	r3, #21652	; 0x5494
 8000896:	2101      	movs	r1, #1
 8000898:	54d1      	strb	r1, [r2, r3]
}
 800089a:	e7f8      	b.n	800088e <HAL_SPI_RxCpltCallback+0x6>
 800089c:	2000a930 	.word	0x2000a930
 80008a0:	20000000 	.word	0x20000000

080008a4 <Delay>:
void Delay( uint16_t ms )
{
	uint16_t tmp_ms = ms;
	while(tmp_ms--)
 80008a4:	b188      	cbz	r0, 80008ca <Delay+0x26>
{
 80008a6:	b5f8      	push	{r3, r4, r5, r6, r7, lr}
 80008a8:	1e44      	subs	r4, r0, #1
 80008aa:	b2a4      	uxth	r4, r4
	{
		HAL_Delay(1);
 80008ac:	2701      	movs	r7, #1
		HAL_IWDG_Refresh(&hiwdg);
 80008ae:	4e07      	ldr	r6, [pc, #28]	; (80008cc <Delay+0x28>)
	while(tmp_ms--)
 80008b0:	f64f 75ff 	movw	r5, #65535	; 0xffff
		HAL_Delay(1);
 80008b4:	4638      	mov	r0, r7
 80008b6:	f000 fb15 	bl	8000ee4 <HAL_Delay>
		HAL_IWDG_Refresh(&hiwdg);
 80008ba:	4630      	mov	r0, r6
 80008bc:	f000 fe87 	bl	80015ce <HAL_IWDG_Refresh>
	while(tmp_ms--)
 80008c0:	3c01      	subs	r4, #1
 80008c2:	b2a4      	uxth	r4, r4
 80008c4:	42ac      	cmp	r4, r5
 80008c6:	d1f5      	bne.n	80008b4 <Delay+0x10>
	}
}
 80008c8:	bdf8      	pop	{r3, r4, r5, r6, r7, pc}
 80008ca:	4770      	bx	lr
 80008cc:	2000a924 	.word	0x2000a924

080008d0 <main>:
{
 80008d0:	b500      	push	{lr}
 80008d2:	b089      	sub	sp, #36	; 0x24
  HAL_Init();
 80008d4:	f000 fada 	bl	8000e8c <HAL_Init>
  SystemClock_Config();
 80008d8:	f7ff fdf6 	bl	80004c8 <SystemClock_Config>
  GPIO_InitTypeDef GPIO_InitStruct = {0};
 80008dc:	2400      	movs	r4, #0
 80008de:	9404      	str	r4, [sp, #16]
 80008e0:	9405      	str	r4, [sp, #20]
 80008e2:	9406      	str	r4, [sp, #24]
 80008e4:	9407      	str	r4, [sp, #28]
  __HAL_RCC_GPIOH_CLK_ENABLE();
 80008e6:	9400      	str	r4, [sp, #0]
 80008e8:	4da9      	ldr	r5, [pc, #676]	; (8000b90 <main+0x2c0>)
 80008ea:	6b2b      	ldr	r3, [r5, #48]	; 0x30
 80008ec:	f043 0380 	orr.w	r3, r3, #128	; 0x80
 80008f0:	632b      	str	r3, [r5, #48]	; 0x30
 80008f2:	6b2b      	ldr	r3, [r5, #48]	; 0x30
 80008f4:	f003 0380 	and.w	r3, r3, #128	; 0x80
 80008f8:	9300      	str	r3, [sp, #0]
 80008fa:	9b00      	ldr	r3, [sp, #0]
  __HAL_RCC_GPIOA_CLK_ENABLE();
 80008fc:	9401      	str	r4, [sp, #4]
 80008fe:	6b2b      	ldr	r3, [r5, #48]	; 0x30
 8000900:	f043 0301 	orr.w	r3, r3, #1
 8000904:	632b      	str	r3, [r5, #48]	; 0x30
 8000906:	6b2b      	ldr	r3, [r5, #48]	; 0x30
 8000908:	f003 0301 	and.w	r3, r3, #1
 800090c:	9301      	str	r3, [sp, #4]
 800090e:	9b01      	ldr	r3, [sp, #4]
  __HAL_RCC_GPIOB_CLK_ENABLE();
 8000910:	9402      	str	r4, [sp, #8]
 8000912:	6b2b      	ldr	r3, [r5, #48]	; 0x30
 8000914:	f043 0302 	orr.w	r3, r3, #2
 8000918:	632b      	str	r3, [r5, #48]	; 0x30
 800091a:	6b2b      	ldr	r3, [r5, #48]	; 0x30
 800091c:	f003 0302 	and.w	r3, r3, #2
 8000920:	9302      	str	r3, [sp, #8]
 8000922:	9b02      	ldr	r3, [sp, #8]
  GPIO_InitStruct.Pin = GPIO_PIN_0;
 8000924:	a908      	add	r1, sp, #32
 8000926:	2301      	movs	r3, #1
 8000928:	f841 3d14 	str.w	r3, [r1, #-20]!
  HAL_GPIO_Init(GPIOA, &GPIO_InitStruct);
 800092c:	4899      	ldr	r0, [pc, #612]	; (8000b94 <main+0x2c4>)
 800092e:	f000 fd35 	bl	800139c <HAL_GPIO_Init>
  __HAL_RCC_DMA2_CLK_ENABLE();
 8000932:	9403      	str	r4, [sp, #12]
 8000934:	6b2b      	ldr	r3, [r5, #48]	; 0x30
 8000936:	f443 0380 	orr.w	r3, r3, #4194304	; 0x400000
 800093a:	632b      	str	r3, [r5, #48]	; 0x30
 800093c:	6b2b      	ldr	r3, [r5, #48]	; 0x30
 800093e:	f403 0380 	and.w	r3, r3, #4194304	; 0x400000
 8000942:	9303      	str	r3, [sp, #12]
 8000944:	9b03      	ldr	r3, [sp, #12]
  HAL_NVIC_SetPriority(DMA2_Stream0_IRQn, 0, 0);
 8000946:	4622      	mov	r2, r4
 8000948:	4621      	mov	r1, r4
 800094a:	2038      	movs	r0, #56	; 0x38
 800094c:	f000 faf0 	bl	8000f30 <HAL_NVIC_SetPriority>
  HAL_NVIC_EnableIRQ(DMA2_Stream0_IRQn);
 8000950:	2038      	movs	r0, #56	; 0x38
 8000952:	f000 fb1f 	bl	8000f94 <HAL_NVIC_EnableIRQ>
  HAL_NVIC_SetPriority(DMA2_Stream3_IRQn, 0, 0);
 8000956:	4622      	mov	r2, r4
 8000958:	4621      	mov	r1, r4
 800095a:	203b      	movs	r0, #59	; 0x3b
 800095c:	f000 fae8 	bl	8000f30 <HAL_NVIC_SetPriority>
  HAL_NVIC_EnableIRQ(DMA2_Stream3_IRQn);
 8000960:	203b      	movs	r0, #59	; 0x3b
 8000962:	f000 fb17 	bl	8000f94 <HAL_NVIC_EnableIRQ>
  hspi1.Instance = SPI1;
 8000966:	4e8c      	ldr	r6, [pc, #560]	; (8000b98 <main+0x2c8>)
 8000968:	4b8c      	ldr	r3, [pc, #560]	; (8000b9c <main+0x2cc>)
 800096a:	6033      	str	r3, [r6, #0]
  hspi1.Init.Mode = SPI_MODE_SLAVE;
 800096c:	6074      	str	r4, [r6, #4]
  hspi1.Init.Direction = SPI_DIRECTION_2LINES;
 800096e:	60b4      	str	r4, [r6, #8]
  hspi1.Init.DataSize = SPI_DATASIZE_8BIT;
 8000970:	60f4      	str	r4, [r6, #12]
  hspi1.Init.CLKPolarity = SPI_POLARITY_LOW;
 8000972:	6134      	str	r4, [r6, #16]
  hspi1.Init.CLKPhase = SPI_PHASE_1EDGE;
 8000974:	6174      	str	r4, [r6, #20]
  hspi1.Init.NSS = SPI_NSS_SOFT;
 8000976:	f44f 7300 	mov.w	r3, #512	; 0x200
 800097a:	61b3      	str	r3, [r6, #24]
  hspi1.Init.FirstBit = SPI_FIRSTBIT_MSB;
 800097c:	6234      	str	r4, [r6, #32]
  hspi1.Init.TIMode = SPI_TIMODE_DISABLE;
 800097e:	6274      	str	r4, [r6, #36]	; 0x24
  hspi1.Init.CRCCalculation = SPI_CRCCALCULATION_DISABLE;
 8000980:	62b4      	str	r4, [r6, #40]	; 0x28
  hspi1.Init.CRCPolynomial = 10;
 8000982:	230a      	movs	r3, #10
 8000984:	62f3      	str	r3, [r6, #44]	; 0x2c
  if (HAL_SPI_Init(&hspi1) != HAL_OK)
 8000986:	4630      	mov	r0, r6
 8000988:	f001 fa08 	bl	8001d9c <HAL_SPI_Init>
  hiwdg.Instance = IWDG;
 800098c:	4884      	ldr	r0, [pc, #528]	; (8000ba0 <main+0x2d0>)
 800098e:	4b85      	ldr	r3, [pc, #532]	; (8000ba4 <main+0x2d4>)
 8000990:	6003      	str	r3, [r0, #0]
  hiwdg.Init.Prescaler = IWDG_PRESCALER_4;
 8000992:	6044      	str	r4, [r0, #4]
  hiwdg.Init.Reload = 400;
 8000994:	f44f 73c8 	mov.w	r3, #400	; 0x190
 8000998:	6083      	str	r3, [r0, #8]
  if (HAL_IWDG_Init(&hiwdg) != HAL_OK)
 800099a:	f000 fdf3 	bl	8001584 <HAL_IWDG_Init>
	RCC->AHB1ENR |= RCC_AHB1ENR_GPIOEEN;
 800099e:	6b2b      	ldr	r3, [r5, #48]	; 0x30
 80009a0:	f043 0310 	orr.w	r3, r3, #16
 80009a4:	632b      	str	r3, [r5, #48]	; 0x30
	GPIOE->AFR[1] |=  (1 << GPIO_AFRH_AFSEL9_Pos)
 80009a6:	4b80      	ldr	r3, [pc, #512]	; (8000ba8 <main+0x2d8>)
 80009a8:	6a59      	ldr	r1, [r3, #36]	; 0x24
 80009aa:	4a80      	ldr	r2, [pc, #512]	; (8000bac <main+0x2dc>)
 80009ac:	430a      	orrs	r2, r1
 80009ae:	625a      	str	r2, [r3, #36]	; 0x24
	GPIOE->MODER |= GPIO_MODER_MODER9_1
 80009b0:	681a      	ldr	r2, [r3, #0]
 80009b2:	f042 5222 	orr.w	r2, r2, #679477248	; 0x28800000
 80009b6:	f442 2200 	orr.w	r2, r2, #524288	; 0x80000
 80009ba:	601a      	str	r2, [r3, #0]
	GPIOE->OSPEEDR |= GPIO_OSPEEDER_OSPEEDR9_0 | GPIO_OSPEEDER_OSPEEDR9_1
 80009bc:	689a      	ldr	r2, [r3, #8]
 80009be:	f042 5273 	orr.w	r2, r2, #1019215872	; 0x3cc00000
 80009c2:	f442 2240 	orr.w	r2, r2, #786432	; 0xc0000
 80009c6:	609a      	str	r2, [r3, #8]
	RCC->APB2ENR |= RCC_APB2ENR_TIM1EN;
 80009c8:	6c6b      	ldr	r3, [r5, #68]	; 0x44
 80009ca:	f043 0301 	orr.w	r3, r3, #1
 80009ce:	646b      	str	r3, [r5, #68]	; 0x44
	TIM1->CR1 |= TIM_CR1_ARPE;
 80009d0:	4b77      	ldr	r3, [pc, #476]	; (8000bb0 <main+0x2e0>)
 80009d2:	681a      	ldr	r2, [r3, #0]
 80009d4:	f042 0280 	orr.w	r2, r2, #128	; 0x80
 80009d8:	601a      	str	r2, [r3, #0]
	TIM1->PSC = 0;
 80009da:	629c      	str	r4, [r3, #40]	; 0x28
	TIM1->ARR = PERIOD_SYG;
 80009dc:	f44f 7082 	mov.w	r0, #260	; 0x104
 80009e0:	62d8      	str	r0, [r3, #44]	; 0x2c
	TIM1->CCER |= TIM_CCER_CC1E;   	// Capture/Compare 1 output enable
 80009e2:	6a1a      	ldr	r2, [r3, #32]
 80009e4:	f042 0201 	orr.w	r2, r2, #1
 80009e8:	621a      	str	r2, [r3, #32]
	TIM1->CCER |= TIM_CCER_CC2E;   	// Capture/Compare 2 output enable
 80009ea:	6a1a      	ldr	r2, [r3, #32]
 80009ec:	f042 0210 	orr.w	r2, r2, #16
 80009f0:	621a      	str	r2, [r3, #32]
	TIM1->CCER |= TIM_CCER_CC3E;   	// Capture/Compare 2 output enable
 80009f2:	6a1a      	ldr	r2, [r3, #32]
 80009f4:	f442 7280 	orr.w	r2, r2, #256	; 0x100
 80009f8:	621a      	str	r2, [r3, #32]
	TIM1->CCER |= TIM_CCER_CC4E;   	// Capture/Compare 2 output enable
 80009fa:	6a1a      	ldr	r2, [r3, #32]
 80009fc:	f442 5280 	orr.w	r2, r2, #4096	; 0x1000
 8000a00:	621a      	str	r2, [r3, #32]
	TIM1->CCMR1 |= TIM_CCMR1_OC1PE;
 8000a02:	699a      	ldr	r2, [r3, #24]
 8000a04:	f042 0208 	orr.w	r2, r2, #8
 8000a08:	619a      	str	r2, [r3, #24]
	TIM1->CCMR1 &= ~TIM_CCMR1_OC1M_0;
 8000a0a:	699a      	ldr	r2, [r3, #24]
 8000a0c:	f022 0210 	bic.w	r2, r2, #16
 8000a10:	619a      	str	r2, [r3, #24]
	TIM1->CCMR1 |= TIM_CCMR1_OC1M_1;
 8000a12:	699a      	ldr	r2, [r3, #24]
 8000a14:	f042 0220 	orr.w	r2, r2, #32
 8000a18:	619a      	str	r2, [r3, #24]
	TIM1->CCMR1 |= TIM_CCMR1_OC1M_2; 	//110: PWM mode 1
 8000a1a:	699a      	ldr	r2, [r3, #24]
 8000a1c:	f042 0240 	orr.w	r2, r2, #64	; 0x40
 8000a20:	619a      	str	r2, [r3, #24]
	TIM1->CCMR1 |= TIM_CCMR1_OC2PE;
 8000a22:	699a      	ldr	r2, [r3, #24]
 8000a24:	f442 6200 	orr.w	r2, r2, #2048	; 0x800
 8000a28:	619a      	str	r2, [r3, #24]
	TIM1->CCMR1 &= ~TIM_CCMR1_OC2M_0;
 8000a2a:	699a      	ldr	r2, [r3, #24]
 8000a2c:	f422 5280 	bic.w	r2, r2, #4096	; 0x1000
 8000a30:	619a      	str	r2, [r3, #24]
	TIM1->CCMR1 |= TIM_CCMR1_OC2M_1;
 8000a32:	699a      	ldr	r2, [r3, #24]
 8000a34:	f442 5200 	orr.w	r2, r2, #8192	; 0x2000
 8000a38:	619a      	str	r2, [r3, #24]
	TIM1->CCMR1 |= TIM_CCMR1_OC2M_2; 	//110: PWM mode 1
 8000a3a:	699a      	ldr	r2, [r3, #24]
 8000a3c:	f442 4280 	orr.w	r2, r2, #16384	; 0x4000
 8000a40:	619a      	str	r2, [r3, #24]
	TIM1->CCMR2 |= TIM_CCMR2_OC3PE;
 8000a42:	69da      	ldr	r2, [r3, #28]
 8000a44:	f042 0208 	orr.w	r2, r2, #8
 8000a48:	61da      	str	r2, [r3, #28]
	TIM1->CCMR2 &= ~TIM_CCMR2_OC3M_0;
 8000a4a:	69da      	ldr	r2, [r3, #28]
 8000a4c:	f022 0210 	bic.w	r2, r2, #16
 8000a50:	61da      	str	r2, [r3, #28]
	TIM1->CCMR2 |= TIM_CCMR2_OC3M_1;
 8000a52:	69da      	ldr	r2, [r3, #28]
 8000a54:	f042 0220 	orr.w	r2, r2, #32
 8000a58:	61da      	str	r2, [r3, #28]
	TIM1->CCMR2 |= TIM_CCMR2_OC3M_2; 	//110: PWM mode 1
 8000a5a:	69da      	ldr	r2, [r3, #28]
 8000a5c:	f042 0240 	orr.w	r2, r2, #64	; 0x40
 8000a60:	61da      	str	r2, [r3, #28]
	TIM1->CCMR2 |= TIM_CCMR2_OC4PE;
 8000a62:	69da      	ldr	r2, [r3, #28]
 8000a64:	f442 6200 	orr.w	r2, r2, #2048	; 0x800
 8000a68:	61da      	str	r2, [r3, #28]
	TIM1->CCMR2 &= ~TIM_CCMR2_OC4M_0;
 8000a6a:	69da      	ldr	r2, [r3, #28]
 8000a6c:	f422 5280 	bic.w	r2, r2, #4096	; 0x1000
 8000a70:	61da      	str	r2, [r3, #28]
	TIM1->CCMR2 |= TIM_CCMR2_OC4M_1;
 8000a72:	69da      	ldr	r2, [r3, #28]
 8000a74:	f442 5200 	orr.w	r2, r2, #8192	; 0x2000
 8000a78:	61da      	str	r2, [r3, #28]
	TIM1->CCMR2 |= TIM_CCMR2_OC4M_2; 	//110: PWM mode 1
 8000a7a:	69da      	ldr	r2, [r3, #28]
 8000a7c:	f442 4280 	orr.w	r2, r2, #16384	; 0x4000
 8000a80:	61da      	str	r2, [r3, #28]
 */
__STATIC_INLINE void __NVIC_EnableIRQ(IRQn_Type IRQn)
{
  if ((int32_t)(IRQn) >= 0)
  {
    NVIC->ISER[(((uint32_t)IRQn) >> 5UL)] = (uint32_t)(1UL << (((uint32_t)IRQn) & 0x1FUL));
 8000a82:	4a4c      	ldr	r2, [pc, #304]	; (8000bb4 <main+0x2e4>)
 8000a84:	f04f 7100 	mov.w	r1, #33554432	; 0x2000000
 8000a88:	6011      	str	r1, [r2, #0]
 */
__STATIC_INLINE void __NVIC_SetPriority(IRQn_Type IRQn, uint32_t priority)
{
  if ((int32_t)(IRQn) >= 0)
  {
    NVIC->IP[((uint32_t)IRQn)]               = (uint8_t)((priority << (8U - __NVIC_PRIO_BITS)) & (uint32_t)0xFFUL);
 8000a8a:	2110      	movs	r1, #16
 8000a8c:	f882 1319 	strb.w	r1, [r2, #793]	; 0x319
	TIM1->DIER |= TIM_DIER_UIE;
 8000a90:	68da      	ldr	r2, [r3, #12]
 8000a92:	f042 0201 	orr.w	r2, r2, #1
 8000a96:	60da      	str	r2, [r3, #12]
	TIM1->BDTR|= TIM_BDTR_MOE;     		//MOE: Main output enable
 8000a98:	6c5a      	ldr	r2, [r3, #68]	; 0x44
 8000a9a:	f442 4200 	orr.w	r2, r2, #32768	; 0x8000
 8000a9e:	645a      	str	r2, [r3, #68]	; 0x44
	TIM1->CR1 &= ~TIM_CR1_CEN; 			//Bit 0 CEN: Counter enable
 8000aa0:	681a      	ldr	r2, [r3, #0]
 8000aa2:	f022 0201 	bic.w	r2, r2, #1
 8000aa6:	601a      	str	r2, [r3, #0]
	RCC->AHB1ENR |= RCC_AHB1ENR_GPIOCEN;
 8000aa8:	6b2b      	ldr	r3, [r5, #48]	; 0x30
 8000aaa:	f043 0304 	orr.w	r3, r3, #4
 8000aae:	632b      	str	r3, [r5, #48]	; 0x30
	GPIOC->AFR[0] |=  (3 << GPIO_AFRL_AFSEL6_Pos)
 8000ab0:	4b41      	ldr	r3, [pc, #260]	; (8000bb8 <main+0x2e8>)
 8000ab2:	6a1a      	ldr	r2, [r3, #32]
 8000ab4:	f042 524c 	orr.w	r2, r2, #855638016	; 0x33000000
 8000ab8:	621a      	str	r2, [r3, #32]
	GPIOC->AFR[1] |=  (3 << GPIO_AFRH_AFSEL8_Pos)
 8000aba:	6a5a      	ldr	r2, [r3, #36]	; 0x24
 8000abc:	f042 0233 	orr.w	r2, r2, #51	; 0x33
 8000ac0:	625a      	str	r2, [r3, #36]	; 0x24
	GPIOC->MODER |= GPIO_MODER_MODER6_1
 8000ac2:	681a      	ldr	r2, [r3, #0]
 8000ac4:	f442 222a 	orr.w	r2, r2, #696320	; 0xaa000
 8000ac8:	601a      	str	r2, [r3, #0]
	GPIOC->OSPEEDR |= GPIO_OSPEEDER_OSPEEDR6_0 | GPIO_OSPEEDER_OSPEEDR6_1
 8000aca:	689a      	ldr	r2, [r3, #8]
 8000acc:	f442 227f 	orr.w	r2, r2, #1044480	; 0xff000
 8000ad0:	609a      	str	r2, [r3, #8]
	RCC->APB2ENR |= RCC_APB2ENR_TIM8EN;
 8000ad2:	6c6b      	ldr	r3, [r5, #68]	; 0x44
 8000ad4:	f043 0302 	orr.w	r3, r3, #2
 8000ad8:	646b      	str	r3, [r5, #68]	; 0x44
	TIM8->CR1 |= TIM_CR1_ARPE;
 8000ada:	4b38      	ldr	r3, [pc, #224]	; (8000bbc <main+0x2ec>)
 8000adc:	681a      	ldr	r2, [r3, #0]
 8000ade:	f042 0280 	orr.w	r2, r2, #128	; 0x80
 8000ae2:	601a      	str	r2, [r3, #0]
	TIM8->PSC = 0;
 8000ae4:	629c      	str	r4, [r3, #40]	; 0x28
	TIM8->ARR = PERIOD_SYG;
 8000ae6:	62d8      	str	r0, [r3, #44]	; 0x2c
	TIM8->CCER |= TIM_CCER_CC1E;   	// Capture/Compare 1 output enable
 8000ae8:	6a1a      	ldr	r2, [r3, #32]
 8000aea:	f042 0201 	orr.w	r2, r2, #1
 8000aee:	621a      	str	r2, [r3, #32]
	TIM8->CCER |= TIM_CCER_CC2E;   	// Capture/Compare 2 output enable
 8000af0:	6a1a      	ldr	r2, [r3, #32]
 8000af2:	430a      	orrs	r2, r1
 8000af4:	621a      	str	r2, [r3, #32]
	TIM8->CCER |= TIM_CCER_CC3E;   	// Capture/Compare 2 output enable
 8000af6:	6a1a      	ldr	r2, [r3, #32]
 8000af8:	f442 7280 	orr.w	r2, r2, #256	; 0x100
 8000afc:	621a      	str	r2, [r3, #32]
	TIM8->CCER |= TIM_CCER_CC4E;   	// Capture/Compare 2 output enable
 8000afe:	6a1a      	ldr	r2, [r3, #32]
 8000b00:	f442 5280 	orr.w	r2, r2, #4096	; 0x1000
 8000b04:	621a      	str	r2, [r3, #32]
	TIM8->CCMR1 |= TIM_CCMR1_OC1PE;
 8000b06:	699a      	ldr	r2, [r3, #24]
 8000b08:	f042 0208 	orr.w	r2, r2, #8
 8000b0c:	619a      	str	r2, [r3, #24]
	TIM8->CCMR1 &= ~TIM_CCMR1_OC1M_0;
 8000b0e:	699a      	ldr	r2, [r3, #24]
 8000b10:	f022 0210 	bic.w	r2, r2, #16
 8000b14:	619a      	str	r2, [r3, #24]
	TIM8->CCMR1 |= TIM_CCMR1_OC1M_1;
 8000b16:	699a      	ldr	r2, [r3, #24]
 8000b18:	f042 0220 	orr.w	r2, r2, #32
 8000b1c:	619a      	str	r2, [r3, #24]
	TIM8->CCMR1 |= TIM_CCMR1_OC1M_2; 	//110: PWM mode 1
 8000b1e:	699a      	ldr	r2, [r3, #24]
 8000b20:	f042 0240 	orr.w	r2, r2, #64	; 0x40
 8000b24:	619a      	str	r2, [r3, #24]
	TIM8->CCMR1 |= TIM_CCMR1_OC2PE;
 8000b26:	699a      	ldr	r2, [r3, #24]
 8000b28:	f442 6200 	orr.w	r2, r2, #2048	; 0x800
 8000b2c:	619a      	str	r2, [r3, #24]
	TIM8->CCMR1 &= ~TIM_CCMR1_OC2M_0;
 8000b2e:	699a      	ldr	r2, [r3, #24]
 8000b30:	f422 5280 	bic.w	r2, r2, #4096	; 0x1000
 8000b34:	619a      	str	r2, [r3, #24]
	TIM8->CCMR1 |= TIM_CCMR1_OC2M_1;
 8000b36:	699a      	ldr	r2, [r3, #24]
 8000b38:	f442 5200 	orr.w	r2, r2, #8192	; 0x2000
 8000b3c:	619a      	str	r2, [r3, #24]
	TIM8->CCMR1 |= TIM_CCMR1_OC2M_2; 	//110: PWM mode 1
 8000b3e:	699a      	ldr	r2, [r3, #24]
 8000b40:	f442 4280 	orr.w	r2, r2, #16384	; 0x4000
 8000b44:	619a      	str	r2, [r3, #24]
	TIM8->CCMR2 |= TIM_CCMR2_OC3PE;
 8000b46:	69da      	ldr	r2, [r3, #28]
 8000b48:	f042 0208 	orr.w	r2, r2, #8
 8000b4c:	61da      	str	r2, [r3, #28]
	TIM8->CCMR2 &= ~TIM_CCMR2_OC3M_0;
 8000b4e:	69da      	ldr	r2, [r3, #28]
 8000b50:	f022 0210 	bic.w	r2, r2, #16
 8000b54:	61da      	str	r2, [r3, #28]
	TIM8->CCMR2 |= TIM_CCMR2_OC3M_1;
 8000b56:	69da      	ldr	r2, [r3, #28]
 8000b58:	f042 0220 	orr.w	r2, r2, #32
 8000b5c:	61da      	str	r2, [r3, #28]
	TIM8->CCMR2 |= TIM_CCMR2_OC3M_2; 	//110: PWM mode 1
 8000b5e:	69da      	ldr	r2, [r3, #28]
 8000b60:	f042 0240 	orr.w	r2, r2, #64	; 0x40
 8000b64:	61da      	str	r2, [r3, #28]
	TIM8->CCMR2 |= TIM_CCMR2_OC4PE;
 8000b66:	69da      	ldr	r2, [r3, #28]
 8000b68:	f442 6200 	orr.w	r2, r2, #2048	; 0x800
 8000b6c:	61da      	str	r2, [r3, #28]
	TIM8->CCMR2 &= ~TIM_CCMR2_OC4M_0;
 8000b6e:	69da      	ldr	r2, [r3, #28]
 8000b70:	f422 5280 	bic.w	r2, r2, #4096	; 0x1000
 8000b74:	61da      	str	r2, [r3, #28]
	TIM8->CCMR2 |= TIM_CCMR2_OC4M_1;
 8000b76:	69da      	ldr	r2, [r3, #28]
 8000b78:	f442 5200 	orr.w	r2, r2, #8192	; 0x2000
 8000b7c:	61da      	str	r2, [r3, #28]
	TIM8->CCMR2 |= TIM_CCMR2_OC4M_2; 	//110: PWM mode 1
 8000b7e:	69da      	ldr	r2, [r3, #28]
 8000b80:	f442 4280 	orr.w	r2, r2, #16384	; 0x4000
 8000b84:	61da      	str	r2, [r3, #28]
	TIM8->BDTR|= TIM_BDTR_MOE;     		//MOE: Main output enable
 8000b86:	6c5a      	ldr	r2, [r3, #68]	; 0x44
 8000b88:	f442 4200 	orr.w	r2, r2, #32768	; 0x8000
 8000b8c:	645a      	str	r2, [r3, #68]	; 0x44
 8000b8e:	e017      	b.n	8000bc0 <main+0x2f0>
 8000b90:	40023800 	.word	0x40023800
 8000b94:	40020000 	.word	0x40020000
 8000b98:	2000a930 	.word	0x2000a930
 8000b9c:	40013000 	.word	0x40013000
 8000ba0:	2000a924 	.word	0x2000a924
 8000ba4:	40003000 	.word	0x40003000
 8000ba8:	40021000 	.word	0x40021000
 8000bac:	01101010 	.word	0x01101010
 8000bb0:	40010000 	.word	0x40010000
 8000bb4:	e000e100 	.word	0xe000e100
 8000bb8:	40020800 	.word	0x40020800
 8000bbc:	40010400 	.word	0x40010400
	TIM8->CR1 &= ~TIM_CR1_CEN; 			//Bit 0 CEN: Counter enable
 8000bc0:	681a      	ldr	r2, [r3, #0]
 8000bc2:	f022 0201 	bic.w	r2, r2, #1
 8000bc6:	601a      	str	r2, [r3, #0]
  memset( add_leds_buff.data_buf, 0x10, PIXELS_NUM*24 );
 8000bc8:	4c15      	ldr	r4, [pc, #84]	; (8000c20 <main+0x350>)
 8000bca:	f245 4260 	movw	r2, #21600	; 0x5460
 8000bce:	4620      	mov	r0, r4
 8000bd0:	f001 faf9 	bl	80021c6 <memset>
  HAL_SPI_Receive_DMA(&hspi1, add_leds_buff.data_buf, PIXELS_NUM*24);
 8000bd4:	f245 4260 	movw	r2, #21600	; 0x5460
 8000bd8:	4621      	mov	r1, r4
 8000bda:	4630      	mov	r0, r6
 8000bdc:	f001 f9c6 	bl	8001f6c <HAL_SPI_Receive_DMA>
		HAL_IWDG_Refresh(&hiwdg);
 8000be0:	4e10      	ldr	r6, [pc, #64]	; (8000c24 <main+0x354>)
		if(HAL_GPIO_ReadPin(GPIOA, GPIO_PIN_0))
 8000be2:	f5a5 5560 	sub.w	r5, r5, #14336	; 0x3800
		if(local.mem_buf_rd)
 8000be6:	4c10      	ldr	r4, [pc, #64]	; (8000c28 <main+0x358>)
 8000be8:	e001      	b.n	8000bee <main+0x31e>
 8000bea:	7823      	ldrb	r3, [r4, #0]
 8000bec:	b983      	cbnz	r3, 8000c10 <main+0x340>
		HAL_IWDG_Refresh(&hiwdg);
 8000bee:	4630      	mov	r0, r6
 8000bf0:	f000 fced 	bl	80015ce <HAL_IWDG_Refresh>
		if(HAL_GPIO_ReadPin(GPIOA, GPIO_PIN_0))
 8000bf4:	2101      	movs	r1, #1
 8000bf6:	4628      	mov	r0, r5
 8000bf8:	f000 fcbe 	bl	8001578 <HAL_GPIO_ReadPin>
 8000bfc:	2800      	cmp	r0, #0
 8000bfe:	d0f4      	beq.n	8000bea <main+0x31a>
			LED_SendData(PIXELS_NUM*24);
 8000c00:	f245 4060 	movw	r0, #21600	; 0x5460
 8000c04:	f7ff fcac 	bl	8000560 <LED_SendData>
			Delay(50);
 8000c08:	2032      	movs	r0, #50	; 0x32
 8000c0a:	f7ff fe4b 	bl	80008a4 <Delay>
 8000c0e:	e7ec      	b.n	8000bea <main+0x31a>
			Delay(2);
 8000c10:	2002      	movs	r0, #2
 8000c12:	f7ff fe47 	bl	80008a4 <Delay>
			LED_SendData(PIXELS_NUM*24);
 8000c16:	f245 4060 	movw	r0, #21600	; 0x5460
 8000c1a:	f7ff fca1 	bl	8000560 <LED_SendData>
 8000c1e:	e7e6      	b.n	8000bee <main+0x31e>
 8000c20:	200054c0 	.word	0x200054c0
 8000c24:	2000a924 	.word	0x2000a924
 8000c28:	20005494 	.word	0x20005494

08000c2c <Error_Handler>:
{
  /* USER CODE BEGIN Error_Handler_Debug */
	/* User can add his own implementation to report the HAL error return state */

  /* USER CODE END Error_Handler_Debug */
}
 8000c2c:	4770      	bx	lr
	...

08000c30 <HAL_MspInit>:
/* USER CODE END 0 */
/**
  * Initializes the Global MSP.
  */
void HAL_MspInit(void)
{
 8000c30:	b082      	sub	sp, #8
  /* USER CODE BEGIN MspInit 0 */

  /* USER CODE END MspInit 0 */

  __HAL_RCC_SYSCFG_CLK_ENABLE();
 8000c32:	2100      	movs	r1, #0
 8000c34:	9100      	str	r1, [sp, #0]
 8000c36:	4b0b      	ldr	r3, [pc, #44]	; (8000c64 <HAL_MspInit+0x34>)
 8000c38:	6c5a      	ldr	r2, [r3, #68]	; 0x44
 8000c3a:	f442 4280 	orr.w	r2, r2, #16384	; 0x4000
 8000c3e:	645a      	str	r2, [r3, #68]	; 0x44
 8000c40:	6c5a      	ldr	r2, [r3, #68]	; 0x44
 8000c42:	f402 4280 	and.w	r2, r2, #16384	; 0x4000
 8000c46:	9200      	str	r2, [sp, #0]
 8000c48:	9a00      	ldr	r2, [sp, #0]
  __HAL_RCC_PWR_CLK_ENABLE();
 8000c4a:	9101      	str	r1, [sp, #4]
 8000c4c:	6c1a      	ldr	r2, [r3, #64]	; 0x40
 8000c4e:	f042 5280 	orr.w	r2, r2, #268435456	; 0x10000000
 8000c52:	641a      	str	r2, [r3, #64]	; 0x40
 8000c54:	6c1b      	ldr	r3, [r3, #64]	; 0x40
 8000c56:	f003 5380 	and.w	r3, r3, #268435456	; 0x10000000
 8000c5a:	9301      	str	r3, [sp, #4]
 8000c5c:	9b01      	ldr	r3, [sp, #4]
  /* System interrupt init*/

  /* USER CODE BEGIN MspInit 1 */

  /* USER CODE END MspInit 1 */
}
 8000c5e:	b002      	add	sp, #8
 8000c60:	4770      	bx	lr
 8000c62:	bf00      	nop
 8000c64:	40023800 	.word	0x40023800

08000c68 <HAL_SPI_MspInit>:
* This function configures the hardware resources used in this example
* @param hspi: SPI handle pointer
* @retval None
*/
void HAL_SPI_MspInit(SPI_HandleTypeDef* hspi)
{
 8000c68:	b530      	push	{r4, r5, lr}
 8000c6a:	b089      	sub	sp, #36	; 0x24
  GPIO_InitTypeDef GPIO_InitStruct = {0};
 8000c6c:	2300      	movs	r3, #0
 8000c6e:	9303      	str	r3, [sp, #12]
 8000c70:	9304      	str	r3, [sp, #16]
 8000c72:	9305      	str	r3, [sp, #20]
 8000c74:	9306      	str	r3, [sp, #24]
 8000c76:	9307      	str	r3, [sp, #28]
  if(hspi->Instance==SPI1)
 8000c78:	6802      	ldr	r2, [r0, #0]
 8000c7a:	4b31      	ldr	r3, [pc, #196]	; (8000d40 <HAL_SPI_MspInit+0xd8>)
 8000c7c:	429a      	cmp	r2, r3
 8000c7e:	d001      	beq.n	8000c84 <HAL_SPI_MspInit+0x1c>
  /* USER CODE BEGIN SPI1_MspInit 1 */

  /* USER CODE END SPI1_MspInit 1 */
  }

}
 8000c80:	b009      	add	sp, #36	; 0x24
 8000c82:	bd30      	pop	{r4, r5, pc}
 8000c84:	4604      	mov	r4, r0
    __HAL_RCC_SPI1_CLK_ENABLE();
 8000c86:	2500      	movs	r5, #0
 8000c88:	9501      	str	r5, [sp, #4]
 8000c8a:	f503 3384 	add.w	r3, r3, #67584	; 0x10800
 8000c8e:	6c5a      	ldr	r2, [r3, #68]	; 0x44
 8000c90:	f442 5280 	orr.w	r2, r2, #4096	; 0x1000
 8000c94:	645a      	str	r2, [r3, #68]	; 0x44
 8000c96:	6c5a      	ldr	r2, [r3, #68]	; 0x44
 8000c98:	f402 5280 	and.w	r2, r2, #4096	; 0x1000
 8000c9c:	9201      	str	r2, [sp, #4]
 8000c9e:	9a01      	ldr	r2, [sp, #4]
    __HAL_RCC_GPIOB_CLK_ENABLE();
 8000ca0:	9502      	str	r5, [sp, #8]
 8000ca2:	6b1a      	ldr	r2, [r3, #48]	; 0x30
 8000ca4:	f042 0202 	orr.w	r2, r2, #2
 8000ca8:	631a      	str	r2, [r3, #48]	; 0x30
 8000caa:	6b1b      	ldr	r3, [r3, #48]	; 0x30
 8000cac:	f003 0302 	and.w	r3, r3, #2
 8000cb0:	9302      	str	r3, [sp, #8]
 8000cb2:	9b02      	ldr	r3, [sp, #8]
    GPIO_InitStruct.Pin = GPIO_PIN_3|GPIO_PIN_4|GPIO_PIN_5;
 8000cb4:	2338      	movs	r3, #56	; 0x38
 8000cb6:	9303      	str	r3, [sp, #12]
    GPIO_InitStruct.Mode = GPIO_MODE_AF_PP;
 8000cb8:	2302      	movs	r3, #2
 8000cba:	9304      	str	r3, [sp, #16]
    GPIO_InitStruct.Speed = GPIO_SPEED_FREQ_VERY_HIGH;
 8000cbc:	2303      	movs	r3, #3
 8000cbe:	9306      	str	r3, [sp, #24]
    GPIO_InitStruct.Alternate = GPIO_AF5_SPI1;
 8000cc0:	2305      	movs	r3, #5
 8000cc2:	9307      	str	r3, [sp, #28]
    HAL_GPIO_Init(GPIOB, &GPIO_InitStruct);
 8000cc4:	a903      	add	r1, sp, #12
 8000cc6:	481f      	ldr	r0, [pc, #124]	; (8000d44 <HAL_SPI_MspInit+0xdc>)
 8000cc8:	f000 fb68 	bl	800139c <HAL_GPIO_Init>
    hdma_spi1_rx.Instance = DMA2_Stream0;
 8000ccc:	481e      	ldr	r0, [pc, #120]	; (8000d48 <HAL_SPI_MspInit+0xe0>)
 8000cce:	4b1f      	ldr	r3, [pc, #124]	; (8000d4c <HAL_SPI_MspInit+0xe4>)
 8000cd0:	6003      	str	r3, [r0, #0]
    hdma_spi1_rx.Init.Channel = DMA_CHANNEL_3;
 8000cd2:	f04f 63c0 	mov.w	r3, #100663296	; 0x6000000
 8000cd6:	6043      	str	r3, [r0, #4]
    hdma_spi1_rx.Init.Direction = DMA_PERIPH_TO_MEMORY;
 8000cd8:	6085      	str	r5, [r0, #8]
    hdma_spi1_rx.Init.PeriphInc = DMA_PINC_DISABLE;
 8000cda:	60c5      	str	r5, [r0, #12]
    hdma_spi1_rx.Init.MemInc = DMA_MINC_ENABLE;
 8000cdc:	f44f 6380 	mov.w	r3, #1024	; 0x400
 8000ce0:	6103      	str	r3, [r0, #16]
    hdma_spi1_rx.Init.PeriphDataAlignment = DMA_PDATAALIGN_BYTE;
 8000ce2:	6145      	str	r5, [r0, #20]
    hdma_spi1_rx.Init.MemDataAlignment = DMA_MDATAALIGN_BYTE;
 8000ce4:	6185      	str	r5, [r0, #24]
    hdma_spi1_rx.Init.Mode = DMA_CIRCULAR;
 8000ce6:	f44f 7380 	mov.w	r3, #256	; 0x100
 8000cea:	61c3      	str	r3, [r0, #28]
    hdma_spi1_rx.Init.Priority = DMA_PRIORITY_VERY_HIGH;
 8000cec:	f44f 3340 	mov.w	r3, #196608	; 0x30000
 8000cf0:	6203      	str	r3, [r0, #32]
    hdma_spi1_rx.Init.FIFOMode = DMA_FIFOMODE_DISABLE;
 8000cf2:	6245      	str	r5, [r0, #36]	; 0x24
    if (HAL_DMA_Init(&hdma_spi1_rx) != HAL_OK)
 8000cf4:	f000 f98a 	bl	800100c <HAL_DMA_Init>
 8000cf8:	b9d8      	cbnz	r0, 8000d32 <HAL_SPI_MspInit+0xca>
    __HAL_LINKDMA(hspi,hdmarx,hdma_spi1_rx);
 8000cfa:	4b13      	ldr	r3, [pc, #76]	; (8000d48 <HAL_SPI_MspInit+0xe0>)
 8000cfc:	64e3      	str	r3, [r4, #76]	; 0x4c
 8000cfe:	639c      	str	r4, [r3, #56]	; 0x38
    hdma_spi1_tx.Instance = DMA2_Stream3;
 8000d00:	4813      	ldr	r0, [pc, #76]	; (8000d50 <HAL_SPI_MspInit+0xe8>)
 8000d02:	4b14      	ldr	r3, [pc, #80]	; (8000d54 <HAL_SPI_MspInit+0xec>)
 8000d04:	6003      	str	r3, [r0, #0]
    hdma_spi1_tx.Init.Channel = DMA_CHANNEL_3;
 8000d06:	f04f 63c0 	mov.w	r3, #100663296	; 0x6000000
 8000d0a:	6043      	str	r3, [r0, #4]
    hdma_spi1_tx.Init.Direction = DMA_MEMORY_TO_PERIPH;
 8000d0c:	2340      	movs	r3, #64	; 0x40
 8000d0e:	6083      	str	r3, [r0, #8]
    hdma_spi1_tx.Init.PeriphInc = DMA_PINC_DISABLE;
 8000d10:	2300      	movs	r3, #0
 8000d12:	60c3      	str	r3, [r0, #12]
    hdma_spi1_tx.Init.MemInc = DMA_MINC_ENABLE;
 8000d14:	f44f 6280 	mov.w	r2, #1024	; 0x400
 8000d18:	6102      	str	r2, [r0, #16]
    hdma_spi1_tx.Init.PeriphDataAlignment = DMA_PDATAALIGN_BYTE;
 8000d1a:	6143      	str	r3, [r0, #20]
    hdma_spi1_tx.Init.MemDataAlignment = DMA_MDATAALIGN_BYTE;
 8000d1c:	6183      	str	r3, [r0, #24]
    hdma_spi1_tx.Init.Mode = DMA_NORMAL;
 8000d1e:	61c3      	str	r3, [r0, #28]
    hdma_spi1_tx.Init.Priority = DMA_PRIORITY_LOW;
 8000d20:	6203      	str	r3, [r0, #32]
    hdma_spi1_tx.Init.FIFOMode = DMA_FIFOMODE_DISABLE;
 8000d22:	6243      	str	r3, [r0, #36]	; 0x24
    if (HAL_DMA_Init(&hdma_spi1_tx) != HAL_OK)
 8000d24:	f000 f972 	bl	800100c <HAL_DMA_Init>
 8000d28:	b930      	cbnz	r0, 8000d38 <HAL_SPI_MspInit+0xd0>
    __HAL_LINKDMA(hspi,hdmatx,hdma_spi1_tx);
 8000d2a:	4b09      	ldr	r3, [pc, #36]	; (8000d50 <HAL_SPI_MspInit+0xe8>)
 8000d2c:	64a3      	str	r3, [r4, #72]	; 0x48
 8000d2e:	639c      	str	r4, [r3, #56]	; 0x38
}
 8000d30:	e7a6      	b.n	8000c80 <HAL_SPI_MspInit+0x18>
      Error_Handler();
 8000d32:	f7ff ff7b 	bl	8000c2c <Error_Handler>
 8000d36:	e7e0      	b.n	8000cfa <HAL_SPI_MspInit+0x92>
      Error_Handler();
 8000d38:	f7ff ff78 	bl	8000c2c <Error_Handler>
 8000d3c:	e7f5      	b.n	8000d2a <HAL_SPI_MspInit+0xc2>
 8000d3e:	bf00      	nop
 8000d40:	40013000 	.word	0x40013000
 8000d44:	40020400 	.word	0x40020400
 8000d48:	2000a988 	.word	0x2000a988
 8000d4c:	40026410 	.word	0x40026410
 8000d50:	2000a9e8 	.word	0x2000a9e8
 8000d54:	40026458 	.word	0x40026458

08000d58 <NMI_Handler>:

  /* USER CODE END NonMaskableInt_IRQn 0 */
  /* USER CODE BEGIN NonMaskableInt_IRQn 1 */

  /* USER CODE END NonMaskableInt_IRQn 1 */
}
 8000d58:	4770      	bx	lr

08000d5a <HardFault_Handler>:

/**
  * @brief This function handles Hard fault interrupt.
  */
void HardFault_Handler(void)
{
 8000d5a:	e7fe      	b.n	8000d5a <HardFault_Handler>

08000d5c <MemManage_Handler>:

/**
  * @brief This function handles Memory management fault.
  */
void MemManage_Handler(void)
{
 8000d5c:	e7fe      	b.n	8000d5c <MemManage_Handler>

08000d5e <BusFault_Handler>:

/**
  * @brief This function handles Pre-fetch fault, memory access fault.
  */
void BusFault_Handler(void)
{
 8000d5e:	e7fe      	b.n	8000d5e <BusFault_Handler>

08000d60 <UsageFault_Handler>:

/**
  * @brief This function handles Undefined instruction or illegal state.
  */
void UsageFault_Handler(void)
{
 8000d60:	e7fe      	b.n	8000d60 <UsageFault_Handler>

08000d62 <SVC_Handler>:

  /* USER CODE END SVCall_IRQn 0 */
  /* USER CODE BEGIN SVCall_IRQn 1 */

  /* USER CODE END SVCall_IRQn 1 */
}
 8000d62:	4770      	bx	lr

08000d64 <DebugMon_Handler>:

  /* USER CODE END DebugMonitor_IRQn 0 */
  /* USER CODE BEGIN DebugMonitor_IRQn 1 */

  /* USER CODE END DebugMonitor_IRQn 1 */
}
 8000d64:	4770      	bx	lr

08000d66 <PendSV_Handler>:

  /* USER CODE END PendSV_IRQn 0 */
  /* USER CODE BEGIN PendSV_IRQn 1 */

  /* USER CODE END PendSV_IRQn 1 */
}
 8000d66:	4770      	bx	lr

08000d68 <SysTick_Handler>:

/**
  * @brief This function handles System tick timer.
  */
void SysTick_Handler(void)
{
 8000d68:	b508      	push	{r3, lr}
  /* USER CODE BEGIN SysTick_IRQn 0 */

  /* USER CODE END SysTick_IRQn 0 */
  HAL_IncTick();
 8000d6a:	f000 f8a9 	bl	8000ec0 <HAL_IncTick>
  /* USER CODE BEGIN SysTick_IRQn 1 */

  /* USER CODE END SysTick_IRQn 1 */
}
 8000d6e:	bd08      	pop	{r3, pc}

08000d70 <DMA2_Stream0_IRQHandler>:

/**
  * @brief This function handles DMA2 stream0 global interrupt.
  */
void DMA2_Stream0_IRQHandler(void)
{
 8000d70:	b508      	push	{r3, lr}
  /* USER CODE BEGIN DMA2_Stream0_IRQn 0 */

  /* USER CODE END DMA2_Stream0_IRQn 0 */
  HAL_DMA_IRQHandler(&hdma_spi1_rx);
 8000d72:	4802      	ldr	r0, [pc, #8]	; (8000d7c <DMA2_Stream0_IRQHandler+0xc>)
 8000d74:	f000 fa24 	bl	80011c0 <HAL_DMA_IRQHandler>
  /* USER CODE BEGIN DMA2_Stream0_IRQn 1 */

  /* USER CODE END DMA2_Stream0_IRQn 1 */
}
 8000d78:	bd08      	pop	{r3, pc}
 8000d7a:	bf00      	nop
 8000d7c:	2000a988 	.word	0x2000a988

08000d80 <DMA2_Stream3_IRQHandler>:

/**
  * @brief This function handles DMA2 stream3 global interrupt.
  */
void DMA2_Stream3_IRQHandler(void)
{
 8000d80:	b508      	push	{r3, lr}
  /* USER CODE BEGIN DMA2_Stream3_IRQn 0 */

  /* USER CODE END DMA2_Stream3_IRQn 0 */
  HAL_DMA_IRQHandler(&hdma_spi1_tx);
 8000d82:	4802      	ldr	r0, [pc, #8]	; (8000d8c <DMA2_Stream3_IRQHandler+0xc>)
 8000d84:	f000 fa1c 	bl	80011c0 <HAL_DMA_IRQHandler>
  /* USER CODE BEGIN DMA2_Stream3_IRQn 1 */

  /* USER CODE END DMA2_Stream3_IRQn 1 */
}
 8000d88:	bd08      	pop	{r3, pc}
 8000d8a:	bf00      	nop
 8000d8c:	2000a9e8 	.word	0x2000a9e8

08000d90 <TIM1_UP_TIM10_IRQHandler>:

/* USER CODE BEGIN 1 */
void TIM1_UP_TIM10_IRQHandler( void )
{
 8000d90:	b508      	push	{r3, lr}
	if (TIM1->SR & TIM_SR_UIF)
 8000d92:	4b07      	ldr	r3, [pc, #28]	; (8000db0 <TIM1_UP_TIM10_IRQHandler+0x20>)
 8000d94:	691b      	ldr	r3, [r3, #16]
 8000d96:	f013 0f01 	tst.w	r3, #1
 8000d9a:	d100      	bne.n	8000d9e <TIM1_UP_TIM10_IRQHandler+0xe>
	{
		TIM1->SR &= ~TIM_SR_UIF;
		TIM1_UPD_Servo_Set();
	}
}
 8000d9c:	bd08      	pop	{r3, pc}
		TIM1->SR &= ~TIM_SR_UIF;
 8000d9e:	4a04      	ldr	r2, [pc, #16]	; (8000db0 <TIM1_UP_TIM10_IRQHandler+0x20>)
 8000da0:	6913      	ldr	r3, [r2, #16]
 8000da2:	f023 0301 	bic.w	r3, r3, #1
 8000da6:	6113      	str	r3, [r2, #16]
		TIM1_UPD_Servo_Set();
 8000da8:	f7ff fcb4 	bl	8000714 <TIM1_UPD_Servo_Set>
}
 8000dac:	e7f6      	b.n	8000d9c <TIM1_UP_TIM10_IRQHandler+0xc>
 8000dae:	bf00      	nop
 8000db0:	40010000 	.word	0x40010000

08000db4 <TIM4_IRQHandler>:
void TIM4_IRQHandler(void)
{
	if (TIM4->SR & TIM_SR_UIF)
 8000db4:	4b05      	ldr	r3, [pc, #20]	; (8000dcc <TIM4_IRQHandler+0x18>)
 8000db6:	691b      	ldr	r3, [r3, #16]
 8000db8:	f013 0f01 	tst.w	r3, #1
 8000dbc:	d004      	beq.n	8000dc8 <TIM4_IRQHandler+0x14>
	{
		TIM4->SR &= ~TIM_SR_UIF;
 8000dbe:	4a03      	ldr	r2, [pc, #12]	; (8000dcc <TIM4_IRQHandler+0x18>)
 8000dc0:	6913      	ldr	r3, [r2, #16]
 8000dc2:	f023 0301 	bic.w	r3, r3, #1
 8000dc6:	6113      	str	r3, [r2, #16]
	}
}
 8000dc8:	4770      	bx	lr
 8000dca:	bf00      	nop
 8000dcc:	40000800 	.word	0x40000800

08000dd0 <SystemInit>:
 8000dd0:	4b05      	ldr	r3, [pc, #20]	; (8000de8 <SystemInit+0x18>)
 8000dd2:	f8d3 2088 	ldr.w	r2, [r3, #136]	; 0x88
 8000dd6:	f442 0270 	orr.w	r2, r2, #15728640	; 0xf00000
 8000dda:	f8c3 2088 	str.w	r2, [r3, #136]	; 0x88
 8000dde:	f04f 6200 	mov.w	r2, #134217728	; 0x8000000
 8000de2:	609a      	str	r2, [r3, #8]
 8000de4:	4770      	bx	lr
 8000de6:	bf00      	nop
 8000de8:	e000ed00 	.word	0xe000ed00

08000dec <Reset_Handler>:
 8000dec:	f8df d034 	ldr.w	sp, [pc, #52]	; 8000e24 <LoopFillZerobss+0x14>
 8000df0:	2100      	movs	r1, #0
 8000df2:	e003      	b.n	8000dfc <LoopCopyDataInit>

08000df4 <CopyDataInit>:
 8000df4:	4b0c      	ldr	r3, [pc, #48]	; (8000e28 <LoopFillZerobss+0x18>)
 8000df6:	585b      	ldr	r3, [r3, r1]
 8000df8:	5043      	str	r3, [r0, r1]
 8000dfa:	3104      	adds	r1, #4

08000dfc <LoopCopyDataInit>:
 8000dfc:	480b      	ldr	r0, [pc, #44]	; (8000e2c <LoopFillZerobss+0x1c>)
 8000dfe:	4b0c      	ldr	r3, [pc, #48]	; (8000e30 <LoopFillZerobss+0x20>)
 8000e00:	1842      	adds	r2, r0, r1
 8000e02:	429a      	cmp	r2, r3
 8000e04:	d3f6      	bcc.n	8000df4 <CopyDataInit>
 8000e06:	4a0b      	ldr	r2, [pc, #44]	; (8000e34 <LoopFillZerobss+0x24>)
 8000e08:	e002      	b.n	8000e10 <LoopFillZerobss>

08000e0a <FillZerobss>:
 8000e0a:	2300      	movs	r3, #0
 8000e0c:	f842 3b04 	str.w	r3, [r2], #4

08000e10 <LoopFillZerobss>:
 8000e10:	4b09      	ldr	r3, [pc, #36]	; (8000e38 <LoopFillZerobss+0x28>)
 8000e12:	429a      	cmp	r2, r3
 8000e14:	d3f9      	bcc.n	8000e0a <FillZerobss>
 8000e16:	f7ff ffdb 	bl	8000dd0 <SystemInit>
 8000e1a:	f001 f9a5 	bl	8002168 <__libc_init_array>
 8000e1e:	f7ff fd57 	bl	80008d0 <main>
 8000e22:	4770      	bx	lr
 8000e24:	20020000 	.word	0x20020000
 8000e28:	08002218 	.word	0x08002218
 8000e2c:	20000000 	.word	0x20000000
 8000e30:	200054a4 	.word	0x200054a4
 8000e34:	200054a4 	.word	0x200054a4
 8000e38:	2000aa4c 	.word	0x2000aa4c

08000e3c <ADC_IRQHandler>:
 8000e3c:	e7fe      	b.n	8000e3c <ADC_IRQHandler>
	...

08000e40 <HAL_InitTick>:
 8000e40:	b510      	push	{r4, lr}
 8000e42:	4604      	mov	r4, r0
 8000e44:	4b0e      	ldr	r3, [pc, #56]	; (8000e80 <HAL_InitTick+0x40>)
 8000e46:	7818      	ldrb	r0, [r3, #0]
 8000e48:	f44f 737a 	mov.w	r3, #1000	; 0x3e8
 8000e4c:	fbb3 f3f0 	udiv	r3, r3, r0
 8000e50:	4a0c      	ldr	r2, [pc, #48]	; (8000e84 <HAL_InitTick+0x44>)
 8000e52:	6810      	ldr	r0, [r2, #0]
 8000e54:	fbb0 f0f3 	udiv	r0, r0, r3
 8000e58:	f000 f8aa 	bl	8000fb0 <HAL_SYSTICK_Config>
 8000e5c:	b968      	cbnz	r0, 8000e7a <HAL_InitTick+0x3a>
 8000e5e:	2c0f      	cmp	r4, #15
 8000e60:	d901      	bls.n	8000e66 <HAL_InitTick+0x26>
 8000e62:	2001      	movs	r0, #1
 8000e64:	e00a      	b.n	8000e7c <HAL_InitTick+0x3c>
 8000e66:	2200      	movs	r2, #0
 8000e68:	4621      	mov	r1, r4
 8000e6a:	f04f 30ff 	mov.w	r0, #4294967295	; 0xffffffff
 8000e6e:	f000 f85f 	bl	8000f30 <HAL_NVIC_SetPriority>
 8000e72:	4b05      	ldr	r3, [pc, #20]	; (8000e88 <HAL_InitTick+0x48>)
 8000e74:	601c      	str	r4, [r3, #0]
 8000e76:	2000      	movs	r0, #0
 8000e78:	e000      	b.n	8000e7c <HAL_InitTick+0x3c>
 8000e7a:	2001      	movs	r0, #1
 8000e7c:	bd10      	pop	{r4, pc}
 8000e7e:	bf00      	nop
 8000e80:	2000549c 	.word	0x2000549c
 8000e84:	20005498 	.word	0x20005498
 8000e88:	200054a0 	.word	0x200054a0

08000e8c <HAL_Init>:
 8000e8c:	b508      	push	{r3, lr}
 8000e8e:	4b0b      	ldr	r3, [pc, #44]	; (8000ebc <HAL_Init+0x30>)
 8000e90:	681a      	ldr	r2, [r3, #0]
 8000e92:	f442 7200 	orr.w	r2, r2, #512	; 0x200
 8000e96:	601a      	str	r2, [r3, #0]
 8000e98:	681a      	ldr	r2, [r3, #0]
 8000e9a:	f442 6280 	orr.w	r2, r2, #1024	; 0x400
 8000e9e:	601a      	str	r2, [r3, #0]
 8000ea0:	681a      	ldr	r2, [r3, #0]
 8000ea2:	f442 7280 	orr.w	r2, r2, #256	; 0x100
 8000ea6:	601a      	str	r2, [r3, #0]
 8000ea8:	2003      	movs	r0, #3
 8000eaa:	f000 f82f 	bl	8000f0c <HAL_NVIC_SetPriorityGrouping>
 8000eae:	2000      	movs	r0, #0
 8000eb0:	f7ff ffc6 	bl	8000e40 <HAL_InitTick>
 8000eb4:	f7ff febc 	bl	8000c30 <HAL_MspInit>
 8000eb8:	2000      	movs	r0, #0
 8000eba:	bd08      	pop	{r3, pc}
 8000ebc:	40023c00 	.word	0x40023c00

08000ec0 <HAL_IncTick>:
 8000ec0:	4a03      	ldr	r2, [pc, #12]	; (8000ed0 <HAL_IncTick+0x10>)
 8000ec2:	6811      	ldr	r1, [r2, #0]
 8000ec4:	4b03      	ldr	r3, [pc, #12]	; (8000ed4 <HAL_IncTick+0x14>)
 8000ec6:	781b      	ldrb	r3, [r3, #0]
 8000ec8:	440b      	add	r3, r1
 8000eca:	6013      	str	r3, [r2, #0]
 8000ecc:	4770      	bx	lr
 8000ece:	bf00      	nop
 8000ed0:	2000aa48 	.word	0x2000aa48
 8000ed4:	2000549c 	.word	0x2000549c

08000ed8 <HAL_GetTick>:
 8000ed8:	4b01      	ldr	r3, [pc, #4]	; (8000ee0 <HAL_GetTick+0x8>)
 8000eda:	6818      	ldr	r0, [r3, #0]
 8000edc:	4770      	bx	lr
 8000ede:	bf00      	nop
 8000ee0:	2000aa48 	.word	0x2000aa48

08000ee4 <HAL_Delay>:
 8000ee4:	b538      	push	{r3, r4, r5, lr}
 8000ee6:	4604      	mov	r4, r0
 8000ee8:	f7ff fff6 	bl	8000ed8 <HAL_GetTick>
 8000eec:	4605      	mov	r5, r0
 8000eee:	f1b4 3fff 	cmp.w	r4, #4294967295	; 0xffffffff
 8000ef2:	d002      	beq.n	8000efa <HAL_Delay+0x16>
 8000ef4:	4b04      	ldr	r3, [pc, #16]	; (8000f08 <HAL_Delay+0x24>)
 8000ef6:	781b      	ldrb	r3, [r3, #0]
 8000ef8:	441c      	add	r4, r3
 8000efa:	f7ff ffed 	bl	8000ed8 <HAL_GetTick>
 8000efe:	1b40      	subs	r0, r0, r5
 8000f00:	42a0      	cmp	r0, r4
 8000f02:	d3fa      	bcc.n	8000efa <HAL_Delay+0x16>
 8000f04:	bd38      	pop	{r3, r4, r5, pc}
 8000f06:	bf00      	nop
 8000f08:	2000549c 	.word	0x2000549c

08000f0c <HAL_NVIC_SetPriorityGrouping>:
 8000f0c:	4a07      	ldr	r2, [pc, #28]	; (8000f2c <HAL_NVIC_SetPriorityGrouping+0x20>)
 8000f0e:	68d3      	ldr	r3, [r2, #12]
 8000f10:	f423 63e0 	bic.w	r3, r3, #1792	; 0x700
 8000f14:	041b      	lsls	r3, r3, #16
 8000f16:	0c1b      	lsrs	r3, r3, #16
 8000f18:	f043 63bf 	orr.w	r3, r3, #100139008	; 0x5f80000
 8000f1c:	f443 3300 	orr.w	r3, r3, #131072	; 0x20000
 8000f20:	0200      	lsls	r0, r0, #8
 8000f22:	f400 60e0 	and.w	r0, r0, #1792	; 0x700
 8000f26:	4303      	orrs	r3, r0
 8000f28:	60d3      	str	r3, [r2, #12]
 8000f2a:	4770      	bx	lr
 8000f2c:	e000ed00 	.word	0xe000ed00

08000f30 <HAL_NVIC_SetPriority>:
 8000f30:	b430      	push	{r4, r5}
 8000f32:	4b16      	ldr	r3, [pc, #88]	; (8000f8c <HAL_NVIC_SetPriority+0x5c>)
 8000f34:	68db      	ldr	r3, [r3, #12]
 8000f36:	f3c3 2302 	ubfx	r3, r3, #8, #3
 8000f3a:	f1c3 0407 	rsb	r4, r3, #7
 8000f3e:	2c04      	cmp	r4, #4
 8000f40:	bf28      	it	cs
 8000f42:	2404      	movcs	r4, #4
 8000f44:	1d1d      	adds	r5, r3, #4
 8000f46:	2d06      	cmp	r5, #6
 8000f48:	bf8c      	ite	hi
 8000f4a:	3b03      	subhi	r3, #3
 8000f4c:	2300      	movls	r3, #0
 8000f4e:	f04f 35ff 	mov.w	r5, #4294967295	; 0xffffffff
 8000f52:	fa05 f404 	lsl.w	r4, r5, r4
 8000f56:	ea21 0104 	bic.w	r1, r1, r4
 8000f5a:	4099      	lsls	r1, r3
 8000f5c:	fa05 f303 	lsl.w	r3, r5, r3
 8000f60:	ea22 0303 	bic.w	r3, r2, r3
 8000f64:	4319      	orrs	r1, r3
 8000f66:	2800      	cmp	r0, #0
 8000f68:	db09      	blt.n	8000f7e <HAL_NVIC_SetPriority+0x4e>
 8000f6a:	0109      	lsls	r1, r1, #4
 8000f6c:	b2c9      	uxtb	r1, r1
 8000f6e:	f100 4060 	add.w	r0, r0, #3758096384	; 0xe0000000
 8000f72:	f500 4061 	add.w	r0, r0, #57600	; 0xe100
 8000f76:	f880 1300 	strb.w	r1, [r0, #768]	; 0x300
 8000f7a:	bc30      	pop	{r4, r5}
 8000f7c:	4770      	bx	lr
 8000f7e:	f000 000f 	and.w	r0, r0, #15
 8000f82:	0109      	lsls	r1, r1, #4
 8000f84:	b2c9      	uxtb	r1, r1
 8000f86:	4b02      	ldr	r3, [pc, #8]	; (8000f90 <HAL_NVIC_SetPriority+0x60>)
 8000f88:	5419      	strb	r1, [r3, r0]
 8000f8a:	e7f6      	b.n	8000f7a <HAL_NVIC_SetPriority+0x4a>
 8000f8c:	e000ed00 	.word	0xe000ed00
 8000f90:	e000ed14 	.word	0xe000ed14

08000f94 <HAL_NVIC_EnableIRQ>:
 8000f94:	2800      	cmp	r0, #0
 8000f96:	db08      	blt.n	8000faa <HAL_NVIC_EnableIRQ+0x16>
 8000f98:	0942      	lsrs	r2, r0, #5
 8000f9a:	f000 001f 	and.w	r0, r0, #31
 8000f9e:	2301      	movs	r3, #1
 8000fa0:	fa03 f000 	lsl.w	r0, r3, r0
 8000fa4:	4b01      	ldr	r3, [pc, #4]	; (8000fac <HAL_NVIC_EnableIRQ+0x18>)
 8000fa6:	f843 0022 	str.w	r0, [r3, r2, lsl #2]
 8000faa:	4770      	bx	lr
 8000fac:	e000e100 	.word	0xe000e100

08000fb0 <HAL_SYSTICK_Config>:
 8000fb0:	3801      	subs	r0, #1
 8000fb2:	f1b0 7f80 	cmp.w	r0, #16777216	; 0x1000000
 8000fb6:	d20a      	bcs.n	8000fce <HAL_SYSTICK_Config+0x1e>
 8000fb8:	4b06      	ldr	r3, [pc, #24]	; (8000fd4 <HAL_SYSTICK_Config+0x24>)
 8000fba:	6058      	str	r0, [r3, #4]
 8000fbc:	4a06      	ldr	r2, [pc, #24]	; (8000fd8 <HAL_SYSTICK_Config+0x28>)
 8000fbe:	21f0      	movs	r1, #240	; 0xf0
 8000fc0:	f882 1023 	strb.w	r1, [r2, #35]	; 0x23
 8000fc4:	2000      	movs	r0, #0
 8000fc6:	6098      	str	r0, [r3, #8]
 8000fc8:	2207      	movs	r2, #7
 8000fca:	601a      	str	r2, [r3, #0]
 8000fcc:	4770      	bx	lr
 8000fce:	2001      	movs	r0, #1
 8000fd0:	4770      	bx	lr
 8000fd2:	bf00      	nop
 8000fd4:	e000e010 	.word	0xe000e010
 8000fd8:	e000ed00 	.word	0xe000ed00

08000fdc <DMA_CalcBaseAndBitshift>:
 8000fdc:	6802      	ldr	r2, [r0, #0]
 8000fde:	b2d3      	uxtb	r3, r2
 8000fe0:	3b10      	subs	r3, #16
 8000fe2:	4908      	ldr	r1, [pc, #32]	; (8001004 <DMA_CalcBaseAndBitshift+0x28>)
 8000fe4:	fba1 1303 	umull	r1, r3, r1, r3
 8000fe8:	091b      	lsrs	r3, r3, #4
 8000fea:	4907      	ldr	r1, [pc, #28]	; (8001008 <DMA_CalcBaseAndBitshift+0x2c>)
 8000fec:	5cc9      	ldrb	r1, [r1, r3]
 8000fee:	65c1      	str	r1, [r0, #92]	; 0x5c
 8000ff0:	2b03      	cmp	r3, #3
 8000ff2:	f422 727f 	bic.w	r2, r2, #1020	; 0x3fc
 8000ff6:	f022 0203 	bic.w	r2, r2, #3
 8000ffa:	bf88      	it	hi
 8000ffc:	3204      	addhi	r2, #4
 8000ffe:	6582      	str	r2, [r0, #88]	; 0x58
 8001000:	6d80      	ldr	r0, [r0, #88]	; 0x58
 8001002:	4770      	bx	lr
 8001004:	aaaaaaab 	.word	0xaaaaaaab
 8001008:	08002200 	.word	0x08002200

0800100c <HAL_DMA_Init>:
 800100c:	b538      	push	{r3, r4, r5, lr}
 800100e:	4604      	mov	r4, r0
 8001010:	f7ff ff62 	bl	8000ed8 <HAL_GetTick>
 8001014:	2c00      	cmp	r4, #0
 8001016:	f000 8088 	beq.w	800112a <HAL_DMA_Init+0x11e>
 800101a:	4605      	mov	r5, r0
 800101c:	2300      	movs	r3, #0
 800101e:	f884 3034 	strb.w	r3, [r4, #52]	; 0x34
 8001022:	2302      	movs	r3, #2
 8001024:	f884 3035 	strb.w	r3, [r4, #53]	; 0x35
 8001028:	6822      	ldr	r2, [r4, #0]
 800102a:	6813      	ldr	r3, [r2, #0]
 800102c:	f023 0301 	bic.w	r3, r3, #1
 8001030:	6013      	str	r3, [r2, #0]
 8001032:	6823      	ldr	r3, [r4, #0]
 8001034:	681a      	ldr	r2, [r3, #0]
 8001036:	f012 0f01 	tst.w	r2, #1
 800103a:	d00a      	beq.n	8001052 <HAL_DMA_Init+0x46>
 800103c:	f7ff ff4c 	bl	8000ed8 <HAL_GetTick>
 8001040:	1b40      	subs	r0, r0, r5
 8001042:	2805      	cmp	r0, #5
 8001044:	d9f5      	bls.n	8001032 <HAL_DMA_Init+0x26>
 8001046:	2320      	movs	r3, #32
 8001048:	6563      	str	r3, [r4, #84]	; 0x54
 800104a:	2003      	movs	r0, #3
 800104c:	f884 0035 	strb.w	r0, [r4, #53]	; 0x35
 8001050:	bd38      	pop	{r3, r4, r5, pc}
 8001052:	681a      	ldr	r2, [r3, #0]
 8001054:	4836      	ldr	r0, [pc, #216]	; (8001130 <HAL_DMA_Init+0x124>)
 8001056:	4010      	ands	r0, r2
 8001058:	6861      	ldr	r1, [r4, #4]
 800105a:	68a2      	ldr	r2, [r4, #8]
 800105c:	430a      	orrs	r2, r1
 800105e:	68e1      	ldr	r1, [r4, #12]
 8001060:	430a      	orrs	r2, r1
 8001062:	6921      	ldr	r1, [r4, #16]
 8001064:	430a      	orrs	r2, r1
 8001066:	6961      	ldr	r1, [r4, #20]
 8001068:	430a      	orrs	r2, r1
 800106a:	69a1      	ldr	r1, [r4, #24]
 800106c:	430a      	orrs	r2, r1
 800106e:	69e1      	ldr	r1, [r4, #28]
 8001070:	430a      	orrs	r2, r1
 8001072:	6a21      	ldr	r1, [r4, #32]
 8001074:	430a      	orrs	r2, r1
 8001076:	4302      	orrs	r2, r0
 8001078:	6a61      	ldr	r1, [r4, #36]	; 0x24
 800107a:	2904      	cmp	r1, #4
 800107c:	d015      	beq.n	80010aa <HAL_DMA_Init+0x9e>
 800107e:	601a      	str	r2, [r3, #0]
 8001080:	6821      	ldr	r1, [r4, #0]
 8001082:	694b      	ldr	r3, [r1, #20]
 8001084:	f023 0307 	bic.w	r3, r3, #7
 8001088:	6a62      	ldr	r2, [r4, #36]	; 0x24
 800108a:	4313      	orrs	r3, r2
 800108c:	2a04      	cmp	r2, #4
 800108e:	d115      	bne.n	80010bc <HAL_DMA_Init+0xb0>
 8001090:	6aa0      	ldr	r0, [r4, #40]	; 0x28
 8001092:	4303      	orrs	r3, r0
 8001094:	6ae2      	ldr	r2, [r4, #44]	; 0x2c
 8001096:	b18a      	cbz	r2, 80010bc <HAL_DMA_Init+0xb0>
 8001098:	69a5      	ldr	r5, [r4, #24]
 800109a:	bb1d      	cbnz	r5, 80010e4 <HAL_DMA_Init+0xd8>
 800109c:	2801      	cmp	r0, #1
 800109e:	d01b      	beq.n	80010d8 <HAL_DMA_Init+0xcc>
 80010a0:	b140      	cbz	r0, 80010b4 <HAL_DMA_Init+0xa8>
 80010a2:	2802      	cmp	r0, #2
 80010a4:	d006      	beq.n	80010b4 <HAL_DMA_Init+0xa8>
 80010a6:	2200      	movs	r2, #0
 80010a8:	e006      	b.n	80010b8 <HAL_DMA_Init+0xac>
 80010aa:	6ae1      	ldr	r1, [r4, #44]	; 0x2c
 80010ac:	6b20      	ldr	r0, [r4, #48]	; 0x30
 80010ae:	4301      	orrs	r1, r0
 80010b0:	430a      	orrs	r2, r1
 80010b2:	e7e4      	b.n	800107e <HAL_DMA_Init+0x72>
 80010b4:	f3c2 6200 	ubfx	r2, r2, #24, #1
 80010b8:	2a00      	cmp	r2, #0
 80010ba:	d130      	bne.n	800111e <HAL_DMA_Init+0x112>
 80010bc:	614b      	str	r3, [r1, #20]
 80010be:	4620      	mov	r0, r4
 80010c0:	f7ff ff8c 	bl	8000fdc <DMA_CalcBaseAndBitshift>
 80010c4:	6de2      	ldr	r2, [r4, #92]	; 0x5c
 80010c6:	233f      	movs	r3, #63	; 0x3f
 80010c8:	4093      	lsls	r3, r2
 80010ca:	6083      	str	r3, [r0, #8]
 80010cc:	2000      	movs	r0, #0
 80010ce:	6560      	str	r0, [r4, #84]	; 0x54
 80010d0:	2301      	movs	r3, #1
 80010d2:	f884 3035 	strb.w	r3, [r4, #53]	; 0x35
 80010d6:	e7bb      	b.n	8001050 <HAL_DMA_Init+0x44>
 80010d8:	f1b2 7fc0 	cmp.w	r2, #25165824	; 0x1800000
 80010dc:	bf14      	ite	ne
 80010de:	2200      	movne	r2, #0
 80010e0:	2201      	moveq	r2, #1
 80010e2:	e7e9      	b.n	80010b8 <HAL_DMA_Init+0xac>
 80010e4:	f5b5 5f00 	cmp.w	r5, #8192	; 0x2000
 80010e8:	d006      	beq.n	80010f8 <HAL_DMA_Init+0xec>
 80010ea:	2802      	cmp	r0, #2
 80010ec:	d917      	bls.n	800111e <HAL_DMA_Init+0x112>
 80010ee:	2803      	cmp	r0, #3
 80010f0:	d113      	bne.n	800111a <HAL_DMA_Init+0x10e>
 80010f2:	f3c2 6200 	ubfx	r2, r2, #24, #1
 80010f6:	e7df      	b.n	80010b8 <HAL_DMA_Init+0xac>
 80010f8:	2803      	cmp	r0, #3
 80010fa:	d80c      	bhi.n	8001116 <HAL_DMA_Init+0x10a>
 80010fc:	e8df f000 	tbb	[pc, r0]
 8001100:	050f020f 	.word	0x050f020f
 8001104:	f3c2 6200 	ubfx	r2, r2, #24, #1
 8001108:	e7d6      	b.n	80010b8 <HAL_DMA_Init+0xac>
 800110a:	f1b2 7fc0 	cmp.w	r2, #25165824	; 0x1800000
 800110e:	bf14      	ite	ne
 8001110:	2200      	movne	r2, #0
 8001112:	2201      	moveq	r2, #1
 8001114:	e7d0      	b.n	80010b8 <HAL_DMA_Init+0xac>
 8001116:	2200      	movs	r2, #0
 8001118:	e7ce      	b.n	80010b8 <HAL_DMA_Init+0xac>
 800111a:	2200      	movs	r2, #0
 800111c:	e7cc      	b.n	80010b8 <HAL_DMA_Init+0xac>
 800111e:	2340      	movs	r3, #64	; 0x40
 8001120:	6563      	str	r3, [r4, #84]	; 0x54
 8001122:	2001      	movs	r0, #1
 8001124:	f884 0035 	strb.w	r0, [r4, #53]	; 0x35
 8001128:	e792      	b.n	8001050 <HAL_DMA_Init+0x44>
 800112a:	2001      	movs	r0, #1
 800112c:	e790      	b.n	8001050 <HAL_DMA_Init+0x44>
 800112e:	bf00      	nop
 8001130:	f010803f 	.word	0xf010803f

08001134 <HAL_DMA_Start_IT>:
 8001134:	b470      	push	{r4, r5, r6}
 8001136:	f890 4034 	ldrb.w	r4, [r0, #52]	; 0x34
 800113a:	2c01      	cmp	r4, #1
 800113c:	d03d      	beq.n	80011ba <HAL_DMA_Start_IT+0x86>
 800113e:	6d85      	ldr	r5, [r0, #88]	; 0x58
 8001140:	2401      	movs	r4, #1
 8001142:	f880 4034 	strb.w	r4, [r0, #52]	; 0x34
 8001146:	f890 4035 	ldrb.w	r4, [r0, #53]	; 0x35
 800114a:	b2e4      	uxtb	r4, r4
 800114c:	2c01      	cmp	r4, #1
 800114e:	d005      	beq.n	800115c <HAL_DMA_Start_IT+0x28>
 8001150:	2300      	movs	r3, #0
 8001152:	f880 3034 	strb.w	r3, [r0, #52]	; 0x34
 8001156:	2002      	movs	r0, #2
 8001158:	bc70      	pop	{r4, r5, r6}
 800115a:	4770      	bx	lr
 800115c:	2402      	movs	r4, #2
 800115e:	f880 4035 	strb.w	r4, [r0, #53]	; 0x35
 8001162:	2400      	movs	r4, #0
 8001164:	6544      	str	r4, [r0, #84]	; 0x54
 8001166:	6806      	ldr	r6, [r0, #0]
 8001168:	6834      	ldr	r4, [r6, #0]
 800116a:	f424 2480 	bic.w	r4, r4, #262144	; 0x40000
 800116e:	6034      	str	r4, [r6, #0]
 8001170:	6804      	ldr	r4, [r0, #0]
 8001172:	6063      	str	r3, [r4, #4]
 8001174:	6883      	ldr	r3, [r0, #8]
 8001176:	2b40      	cmp	r3, #64	; 0x40
 8001178:	d01a      	beq.n	80011b0 <HAL_DMA_Start_IT+0x7c>
 800117a:	6803      	ldr	r3, [r0, #0]
 800117c:	6099      	str	r1, [r3, #8]
 800117e:	6803      	ldr	r3, [r0, #0]
 8001180:	60da      	str	r2, [r3, #12]
 8001182:	6dc2      	ldr	r2, [r0, #92]	; 0x5c
 8001184:	233f      	movs	r3, #63	; 0x3f
 8001186:	4093      	lsls	r3, r2
 8001188:	60ab      	str	r3, [r5, #8]
 800118a:	6802      	ldr	r2, [r0, #0]
 800118c:	6813      	ldr	r3, [r2, #0]
 800118e:	f043 0316 	orr.w	r3, r3, #22
 8001192:	6013      	str	r3, [r2, #0]
 8001194:	6c03      	ldr	r3, [r0, #64]	; 0x40
 8001196:	b123      	cbz	r3, 80011a2 <HAL_DMA_Start_IT+0x6e>
 8001198:	6802      	ldr	r2, [r0, #0]
 800119a:	6813      	ldr	r3, [r2, #0]
 800119c:	f043 0308 	orr.w	r3, r3, #8
 80011a0:	6013      	str	r3, [r2, #0]
 80011a2:	6802      	ldr	r2, [r0, #0]
 80011a4:	6813      	ldr	r3, [r2, #0]
 80011a6:	f043 0301 	orr.w	r3, r3, #1
 80011aa:	6013      	str	r3, [r2, #0]
 80011ac:	2000      	movs	r0, #0
 80011ae:	e7d3      	b.n	8001158 <HAL_DMA_Start_IT+0x24>
 80011b0:	6803      	ldr	r3, [r0, #0]
 80011b2:	609a      	str	r2, [r3, #8]
 80011b4:	6803      	ldr	r3, [r0, #0]
 80011b6:	60d9      	str	r1, [r3, #12]
 80011b8:	e7e3      	b.n	8001182 <HAL_DMA_Start_IT+0x4e>
 80011ba:	2002      	movs	r0, #2
 80011bc:	e7cc      	b.n	8001158 <HAL_DMA_Start_IT+0x24>
	...

080011c0 <HAL_DMA_IRQHandler>:
 80011c0:	b5f0      	push	{r4, r5, r6, r7, lr}
 80011c2:	b083      	sub	sp, #12
 80011c4:	4604      	mov	r4, r0
 80011c6:	2300      	movs	r3, #0
 80011c8:	9301      	str	r3, [sp, #4]
 80011ca:	4b72      	ldr	r3, [pc, #456]	; (8001394 <HAL_DMA_IRQHandler+0x1d4>)
 80011cc:	681e      	ldr	r6, [r3, #0]
 80011ce:	6d87      	ldr	r7, [r0, #88]	; 0x58
 80011d0:	683d      	ldr	r5, [r7, #0]
 80011d2:	6dc2      	ldr	r2, [r0, #92]	; 0x5c
 80011d4:	2308      	movs	r3, #8
 80011d6:	4093      	lsls	r3, r2
 80011d8:	422b      	tst	r3, r5
 80011da:	d010      	beq.n	80011fe <HAL_DMA_IRQHandler+0x3e>
 80011dc:	6803      	ldr	r3, [r0, #0]
 80011de:	681a      	ldr	r2, [r3, #0]
 80011e0:	f012 0f04 	tst.w	r2, #4
 80011e4:	d00b      	beq.n	80011fe <HAL_DMA_IRQHandler+0x3e>
 80011e6:	681a      	ldr	r2, [r3, #0]
 80011e8:	f022 0204 	bic.w	r2, r2, #4
 80011ec:	601a      	str	r2, [r3, #0]
 80011ee:	6dc2      	ldr	r2, [r0, #92]	; 0x5c
 80011f0:	2308      	movs	r3, #8
 80011f2:	4093      	lsls	r3, r2
 80011f4:	60bb      	str	r3, [r7, #8]
 80011f6:	6d43      	ldr	r3, [r0, #84]	; 0x54
 80011f8:	f043 0301 	orr.w	r3, r3, #1
 80011fc:	6543      	str	r3, [r0, #84]	; 0x54
 80011fe:	6de2      	ldr	r2, [r4, #92]	; 0x5c
 8001200:	2301      	movs	r3, #1
 8001202:	4093      	lsls	r3, r2
 8001204:	422b      	tst	r3, r5
 8001206:	d009      	beq.n	800121c <HAL_DMA_IRQHandler+0x5c>
 8001208:	6822      	ldr	r2, [r4, #0]
 800120a:	6952      	ldr	r2, [r2, #20]
 800120c:	f012 0f80 	tst.w	r2, #128	; 0x80
 8001210:	d004      	beq.n	800121c <HAL_DMA_IRQHandler+0x5c>
 8001212:	60bb      	str	r3, [r7, #8]
 8001214:	6d63      	ldr	r3, [r4, #84]	; 0x54
 8001216:	f043 0302 	orr.w	r3, r3, #2
 800121a:	6563      	str	r3, [r4, #84]	; 0x54
 800121c:	6de2      	ldr	r2, [r4, #92]	; 0x5c
 800121e:	2304      	movs	r3, #4
 8001220:	4093      	lsls	r3, r2
 8001222:	422b      	tst	r3, r5
 8001224:	d009      	beq.n	800123a <HAL_DMA_IRQHandler+0x7a>
 8001226:	6822      	ldr	r2, [r4, #0]
 8001228:	6812      	ldr	r2, [r2, #0]
 800122a:	f012 0f02 	tst.w	r2, #2
 800122e:	d004      	beq.n	800123a <HAL_DMA_IRQHandler+0x7a>
 8001230:	60bb      	str	r3, [r7, #8]
 8001232:	6d63      	ldr	r3, [r4, #84]	; 0x54
 8001234:	f043 0304 	orr.w	r3, r3, #4
 8001238:	6563      	str	r3, [r4, #84]	; 0x54
 800123a:	6de2      	ldr	r2, [r4, #92]	; 0x5c
 800123c:	2310      	movs	r3, #16
 800123e:	4093      	lsls	r3, r2
 8001240:	422b      	tst	r3, r5
 8001242:	d024      	beq.n	800128e <HAL_DMA_IRQHandler+0xce>
 8001244:	6822      	ldr	r2, [r4, #0]
 8001246:	6812      	ldr	r2, [r2, #0]
 8001248:	f012 0f08 	tst.w	r2, #8
 800124c:	d01f      	beq.n	800128e <HAL_DMA_IRQHandler+0xce>
 800124e:	60bb      	str	r3, [r7, #8]
 8001250:	6823      	ldr	r3, [r4, #0]
 8001252:	681a      	ldr	r2, [r3, #0]
 8001254:	f412 2f80 	tst.w	r2, #262144	; 0x40000
 8001258:	d00d      	beq.n	8001276 <HAL_DMA_IRQHandler+0xb6>
 800125a:	681b      	ldr	r3, [r3, #0]
 800125c:	f413 2f00 	tst.w	r3, #524288	; 0x80000
 8001260:	d104      	bne.n	800126c <HAL_DMA_IRQHandler+0xac>
 8001262:	6c23      	ldr	r3, [r4, #64]	; 0x40
 8001264:	b19b      	cbz	r3, 800128e <HAL_DMA_IRQHandler+0xce>
 8001266:	4620      	mov	r0, r4
 8001268:	4798      	blx	r3
 800126a:	e010      	b.n	800128e <HAL_DMA_IRQHandler+0xce>
 800126c:	6ca3      	ldr	r3, [r4, #72]	; 0x48
 800126e:	b173      	cbz	r3, 800128e <HAL_DMA_IRQHandler+0xce>
 8001270:	4620      	mov	r0, r4
 8001272:	4798      	blx	r3
 8001274:	e00b      	b.n	800128e <HAL_DMA_IRQHandler+0xce>
 8001276:	681a      	ldr	r2, [r3, #0]
 8001278:	f412 7f80 	tst.w	r2, #256	; 0x100
 800127c:	d103      	bne.n	8001286 <HAL_DMA_IRQHandler+0xc6>
 800127e:	681a      	ldr	r2, [r3, #0]
 8001280:	f022 0208 	bic.w	r2, r2, #8
 8001284:	601a      	str	r2, [r3, #0]
 8001286:	6c23      	ldr	r3, [r4, #64]	; 0x40
 8001288:	b10b      	cbz	r3, 800128e <HAL_DMA_IRQHandler+0xce>
 800128a:	4620      	mov	r0, r4
 800128c:	4798      	blx	r3
 800128e:	6de2      	ldr	r2, [r4, #92]	; 0x5c
 8001290:	2320      	movs	r3, #32
 8001292:	4093      	lsls	r3, r2
 8001294:	422b      	tst	r3, r5
 8001296:	d055      	beq.n	8001344 <HAL_DMA_IRQHandler+0x184>
 8001298:	6822      	ldr	r2, [r4, #0]
 800129a:	6812      	ldr	r2, [r2, #0]
 800129c:	f012 0f10 	tst.w	r2, #16
 80012a0:	d050      	beq.n	8001344 <HAL_DMA_IRQHandler+0x184>
 80012a2:	60bb      	str	r3, [r7, #8]
 80012a4:	f894 3035 	ldrb.w	r3, [r4, #53]	; 0x35
 80012a8:	b2db      	uxtb	r3, r3
 80012aa:	2b05      	cmp	r3, #5
 80012ac:	d00e      	beq.n	80012cc <HAL_DMA_IRQHandler+0x10c>
 80012ae:	6823      	ldr	r3, [r4, #0]
 80012b0:	681a      	ldr	r2, [r3, #0]
 80012b2:	f412 2f80 	tst.w	r2, #262144	; 0x40000
 80012b6:	d033      	beq.n	8001320 <HAL_DMA_IRQHandler+0x160>
 80012b8:	681b      	ldr	r3, [r3, #0]
 80012ba:	f413 2f00 	tst.w	r3, #524288	; 0x80000
 80012be:	d12a      	bne.n	8001316 <HAL_DMA_IRQHandler+0x156>
 80012c0:	6c63      	ldr	r3, [r4, #68]	; 0x44
 80012c2:	2b00      	cmp	r3, #0
 80012c4:	d03e      	beq.n	8001344 <HAL_DMA_IRQHandler+0x184>
 80012c6:	4620      	mov	r0, r4
 80012c8:	4798      	blx	r3
 80012ca:	e03b      	b.n	8001344 <HAL_DMA_IRQHandler+0x184>
 80012cc:	6822      	ldr	r2, [r4, #0]
 80012ce:	6813      	ldr	r3, [r2, #0]
 80012d0:	f023 0316 	bic.w	r3, r3, #22
 80012d4:	6013      	str	r3, [r2, #0]
 80012d6:	6822      	ldr	r2, [r4, #0]
 80012d8:	6953      	ldr	r3, [r2, #20]
 80012da:	f023 0380 	bic.w	r3, r3, #128	; 0x80
 80012de:	6153      	str	r3, [r2, #20]
 80012e0:	6c23      	ldr	r3, [r4, #64]	; 0x40
 80012e2:	b1a3      	cbz	r3, 800130e <HAL_DMA_IRQHandler+0x14e>
 80012e4:	6822      	ldr	r2, [r4, #0]
 80012e6:	6813      	ldr	r3, [r2, #0]
 80012e8:	f023 0308 	bic.w	r3, r3, #8
 80012ec:	6013      	str	r3, [r2, #0]
 80012ee:	6de2      	ldr	r2, [r4, #92]	; 0x5c
 80012f0:	233f      	movs	r3, #63	; 0x3f
 80012f2:	4093      	lsls	r3, r2
 80012f4:	60bb      	str	r3, [r7, #8]
 80012f6:	2300      	movs	r3, #0
 80012f8:	f884 3034 	strb.w	r3, [r4, #52]	; 0x34
 80012fc:	2301      	movs	r3, #1
 80012fe:	f884 3035 	strb.w	r3, [r4, #53]	; 0x35
 8001302:	6d23      	ldr	r3, [r4, #80]	; 0x50
 8001304:	2b00      	cmp	r3, #0
 8001306:	d043      	beq.n	8001390 <HAL_DMA_IRQHandler+0x1d0>
 8001308:	4620      	mov	r0, r4
 800130a:	4798      	blx	r3
 800130c:	e040      	b.n	8001390 <HAL_DMA_IRQHandler+0x1d0>
 800130e:	6ca3      	ldr	r3, [r4, #72]	; 0x48
 8001310:	2b00      	cmp	r3, #0
 8001312:	d1e7      	bne.n	80012e4 <HAL_DMA_IRQHandler+0x124>
 8001314:	e7eb      	b.n	80012ee <HAL_DMA_IRQHandler+0x12e>
 8001316:	6be3      	ldr	r3, [r4, #60]	; 0x3c
 8001318:	b1a3      	cbz	r3, 8001344 <HAL_DMA_IRQHandler+0x184>
 800131a:	4620      	mov	r0, r4
 800131c:	4798      	blx	r3
 800131e:	e011      	b.n	8001344 <HAL_DMA_IRQHandler+0x184>
 8001320:	681a      	ldr	r2, [r3, #0]
 8001322:	f412 7f80 	tst.w	r2, #256	; 0x100
 8001326:	d109      	bne.n	800133c <HAL_DMA_IRQHandler+0x17c>
 8001328:	681a      	ldr	r2, [r3, #0]
 800132a:	f022 0210 	bic.w	r2, r2, #16
 800132e:	601a      	str	r2, [r3, #0]
 8001330:	2300      	movs	r3, #0
 8001332:	f884 3034 	strb.w	r3, [r4, #52]	; 0x34
 8001336:	2301      	movs	r3, #1
 8001338:	f884 3035 	strb.w	r3, [r4, #53]	; 0x35
 800133c:	6be3      	ldr	r3, [r4, #60]	; 0x3c
 800133e:	b10b      	cbz	r3, 8001344 <HAL_DMA_IRQHandler+0x184>
 8001340:	4620      	mov	r0, r4
 8001342:	4798      	blx	r3
 8001344:	6d63      	ldr	r3, [r4, #84]	; 0x54
 8001346:	b31b      	cbz	r3, 8001390 <HAL_DMA_IRQHandler+0x1d0>
 8001348:	6d63      	ldr	r3, [r4, #84]	; 0x54
 800134a:	f013 0f01 	tst.w	r3, #1
 800134e:	d01b      	beq.n	8001388 <HAL_DMA_IRQHandler+0x1c8>
 8001350:	2305      	movs	r3, #5
 8001352:	f884 3035 	strb.w	r3, [r4, #53]	; 0x35
 8001356:	6822      	ldr	r2, [r4, #0]
 8001358:	6813      	ldr	r3, [r2, #0]
 800135a:	f023 0301 	bic.w	r3, r3, #1
 800135e:	6013      	str	r3, [r2, #0]
 8001360:	4b0d      	ldr	r3, [pc, #52]	; (8001398 <HAL_DMA_IRQHandler+0x1d8>)
 8001362:	fba3 3606 	umull	r3, r6, r3, r6
 8001366:	0ab6      	lsrs	r6, r6, #10
 8001368:	9b01      	ldr	r3, [sp, #4]
 800136a:	3301      	adds	r3, #1
 800136c:	9301      	str	r3, [sp, #4]
 800136e:	42b3      	cmp	r3, r6
 8001370:	d804      	bhi.n	800137c <HAL_DMA_IRQHandler+0x1bc>
 8001372:	6823      	ldr	r3, [r4, #0]
 8001374:	681b      	ldr	r3, [r3, #0]
 8001376:	f013 0f01 	tst.w	r3, #1
 800137a:	d1f5      	bne.n	8001368 <HAL_DMA_IRQHandler+0x1a8>
 800137c:	2300      	movs	r3, #0
 800137e:	f884 3034 	strb.w	r3, [r4, #52]	; 0x34
 8001382:	2301      	movs	r3, #1
 8001384:	f884 3035 	strb.w	r3, [r4, #53]	; 0x35
 8001388:	6ce3      	ldr	r3, [r4, #76]	; 0x4c
 800138a:	b10b      	cbz	r3, 8001390 <HAL_DMA_IRQHandler+0x1d0>
 800138c:	4620      	mov	r0, r4
 800138e:	4798      	blx	r3
 8001390:	b003      	add	sp, #12
 8001392:	bdf0      	pop	{r4, r5, r6, r7, pc}
 8001394:	20005498 	.word	0x20005498
 8001398:	1b4e81b5 	.word	0x1b4e81b5

0800139c <HAL_GPIO_Init>:
 800139c:	e92d 4ff0 	stmdb	sp!, {r4, r5, r6, r7, r8, r9, sl, fp, lr}
 80013a0:	b083      	sub	sp, #12
 80013a2:	2400      	movs	r4, #0
 80013a4:	4f6f      	ldr	r7, [pc, #444]	; (8001564 <HAL_GPIO_Init+0x1c8>)
 80013a6:	f8df c1c8 	ldr.w	ip, [pc, #456]	; 8001570 <HAL_GPIO_Init+0x1d4>
 80013aa:	4e6f      	ldr	r6, [pc, #444]	; (8001568 <HAL_GPIO_Init+0x1cc>)
 80013ac:	f8df e1c4 	ldr.w	lr, [pc, #452]	; 8001574 <HAL_GPIO_Init+0x1d8>
 80013b0:	e046      	b.n	8001440 <HAL_GPIO_Init+0xa4>
 80013b2:	ea4f 09d4 	mov.w	r9, r4, lsr #3
 80013b6:	eb00 0989 	add.w	r9, r0, r9, lsl #2
 80013ba:	f8d9 a020 	ldr.w	sl, [r9, #32]
 80013be:	f004 0507 	and.w	r5, r4, #7
 80013c2:	ea4f 0b85 	mov.w	fp, r5, lsl #2
 80013c6:	250f      	movs	r5, #15
 80013c8:	fa05 f50b 	lsl.w	r5, r5, fp
 80013cc:	ea2a 0a05 	bic.w	sl, sl, r5
 80013d0:	690d      	ldr	r5, [r1, #16]
 80013d2:	fa05 f50b 	lsl.w	r5, r5, fp
 80013d6:	ea45 050a 	orr.w	r5, r5, sl
 80013da:	f8c9 5020 	str.w	r5, [r9, #32]
 80013de:	e069      	b.n	80014b4 <HAL_GPIO_Init+0x118>
 80013e0:	2500      	movs	r5, #0
 80013e2:	fa05 f509 	lsl.w	r5, r5, r9
 80013e6:	ea45 050a 	orr.w	r5, r5, sl
 80013ea:	609d      	str	r5, [r3, #8]
 80013ec:	6833      	ldr	r3, [r6, #0]
 80013ee:	ea6f 0802 	mvn.w	r8, r2
 80013f2:	684d      	ldr	r5, [r1, #4]
 80013f4:	f415 3f80 	tst.w	r5, #65536	; 0x10000
 80013f8:	bf0c      	ite	eq
 80013fa:	ea08 0303 	andeq.w	r3, r8, r3
 80013fe:	4313      	orrne	r3, r2
 8001400:	6033      	str	r3, [r6, #0]
 8001402:	6873      	ldr	r3, [r6, #4]
 8001404:	684d      	ldr	r5, [r1, #4]
 8001406:	f415 3f00 	tst.w	r5, #131072	; 0x20000
 800140a:	bf0c      	ite	eq
 800140c:	ea08 0303 	andeq.w	r3, r8, r3
 8001410:	4313      	orrne	r3, r2
 8001412:	6073      	str	r3, [r6, #4]
 8001414:	68b3      	ldr	r3, [r6, #8]
 8001416:	684d      	ldr	r5, [r1, #4]
 8001418:	f415 1f80 	tst.w	r5, #1048576	; 0x100000
 800141c:	bf0c      	ite	eq
 800141e:	ea08 0303 	andeq.w	r3, r8, r3
 8001422:	4313      	orrne	r3, r2
 8001424:	60b3      	str	r3, [r6, #8]
 8001426:	68f3      	ldr	r3, [r6, #12]
 8001428:	684d      	ldr	r5, [r1, #4]
 800142a:	f415 1f00 	tst.w	r5, #2097152	; 0x200000
 800142e:	bf0c      	ite	eq
 8001430:	ea08 0303 	andeq.w	r3, r8, r3
 8001434:	4313      	orrne	r3, r2
 8001436:	60f3      	str	r3, [r6, #12]
 8001438:	3401      	adds	r4, #1
 800143a:	2c10      	cmp	r4, #16
 800143c:	f000 808e 	beq.w	800155c <HAL_GPIO_Init+0x1c0>
 8001440:	2301      	movs	r3, #1
 8001442:	40a3      	lsls	r3, r4
 8001444:	680a      	ldr	r2, [r1, #0]
 8001446:	401a      	ands	r2, r3
 8001448:	4293      	cmp	r3, r2
 800144a:	d1f5      	bne.n	8001438 <HAL_GPIO_Init+0x9c>
 800144c:	684d      	ldr	r5, [r1, #4]
 800144e:	f025 0510 	bic.w	r5, r5, #16
 8001452:	3d01      	subs	r5, #1
 8001454:	2d01      	cmp	r5, #1
 8001456:	d818      	bhi.n	800148a <HAL_GPIO_Init+0xee>
 8001458:	6885      	ldr	r5, [r0, #8]
 800145a:	ea4f 0944 	mov.w	r9, r4, lsl #1
 800145e:	f04f 0803 	mov.w	r8, #3
 8001462:	fa08 f809 	lsl.w	r8, r8, r9
 8001466:	ea25 0808 	bic.w	r8, r5, r8
 800146a:	68cd      	ldr	r5, [r1, #12]
 800146c:	fa05 f509 	lsl.w	r5, r5, r9
 8001470:	ea45 0508 	orr.w	r5, r5, r8
 8001474:	6085      	str	r5, [r0, #8]
 8001476:	6845      	ldr	r5, [r0, #4]
 8001478:	ea25 0803 	bic.w	r8, r5, r3
 800147c:	684d      	ldr	r5, [r1, #4]
 800147e:	f3c5 1300 	ubfx	r3, r5, #4, #1
 8001482:	40a3      	lsls	r3, r4
 8001484:	ea43 0308 	orr.w	r3, r3, r8
 8001488:	6043      	str	r3, [r0, #4]
 800148a:	68c5      	ldr	r5, [r0, #12]
 800148c:	ea4f 0844 	mov.w	r8, r4, lsl #1
 8001490:	2303      	movs	r3, #3
 8001492:	fa03 f308 	lsl.w	r3, r3, r8
 8001496:	43db      	mvns	r3, r3
 8001498:	ea03 0905 	and.w	r9, r3, r5
 800149c:	688d      	ldr	r5, [r1, #8]
 800149e:	fa05 f508 	lsl.w	r5, r5, r8
 80014a2:	ea45 0509 	orr.w	r5, r5, r9
 80014a6:	60c5      	str	r5, [r0, #12]
 80014a8:	684d      	ldr	r5, [r1, #4]
 80014aa:	f025 0510 	bic.w	r5, r5, #16
 80014ae:	2d02      	cmp	r5, #2
 80014b0:	f43f af7f 	beq.w	80013b2 <HAL_GPIO_Init+0x16>
 80014b4:	6805      	ldr	r5, [r0, #0]
 80014b6:	401d      	ands	r5, r3
 80014b8:	684b      	ldr	r3, [r1, #4]
 80014ba:	f003 0303 	and.w	r3, r3, #3
 80014be:	fa03 f308 	lsl.w	r3, r3, r8
 80014c2:	432b      	orrs	r3, r5
 80014c4:	6003      	str	r3, [r0, #0]
 80014c6:	684b      	ldr	r3, [r1, #4]
 80014c8:	f013 5f80 	tst.w	r3, #268435456	; 0x10000000
 80014cc:	d0b4      	beq.n	8001438 <HAL_GPIO_Init+0x9c>
 80014ce:	2300      	movs	r3, #0
 80014d0:	9301      	str	r3, [sp, #4]
 80014d2:	6c7b      	ldr	r3, [r7, #68]	; 0x44
 80014d4:	f443 4380 	orr.w	r3, r3, #16384	; 0x4000
 80014d8:	647b      	str	r3, [r7, #68]	; 0x44
 80014da:	6c7b      	ldr	r3, [r7, #68]	; 0x44
 80014dc:	f403 4380 	and.w	r3, r3, #16384	; 0x4000
 80014e0:	9301      	str	r3, [sp, #4]
 80014e2:	9b01      	ldr	r3, [sp, #4]
 80014e4:	f024 0303 	bic.w	r3, r4, #3
 80014e8:	f103 4380 	add.w	r3, r3, #1073741824	; 0x40000000
 80014ec:	f503 339c 	add.w	r3, r3, #79872	; 0x13800
 80014f0:	689d      	ldr	r5, [r3, #8]
 80014f2:	f004 0903 	and.w	r9, r4, #3
 80014f6:	ea4f 0989 	mov.w	r9, r9, lsl #2
 80014fa:	f04f 0a0f 	mov.w	sl, #15
 80014fe:	fa0a fa09 	lsl.w	sl, sl, r9
 8001502:	ea25 0a0a 	bic.w	sl, r5, sl
 8001506:	4560      	cmp	r0, ip
 8001508:	f43f af6a 	beq.w	80013e0 <HAL_GPIO_Init+0x44>
 800150c:	4570      	cmp	r0, lr
 800150e:	d019      	beq.n	8001544 <HAL_GPIO_Init+0x1a8>
 8001510:	4d16      	ldr	r5, [pc, #88]	; (800156c <HAL_GPIO_Init+0x1d0>)
 8001512:	42a8      	cmp	r0, r5
 8001514:	d018      	beq.n	8001548 <HAL_GPIO_Init+0x1ac>
 8001516:	f505 6580 	add.w	r5, r5, #1024	; 0x400
 800151a:	42a8      	cmp	r0, r5
 800151c:	d016      	beq.n	800154c <HAL_GPIO_Init+0x1b0>
 800151e:	f505 6580 	add.w	r5, r5, #1024	; 0x400
 8001522:	42a8      	cmp	r0, r5
 8001524:	d014      	beq.n	8001550 <HAL_GPIO_Init+0x1b4>
 8001526:	f505 6580 	add.w	r5, r5, #1024	; 0x400
 800152a:	42a8      	cmp	r0, r5
 800152c:	d012      	beq.n	8001554 <HAL_GPIO_Init+0x1b8>
 800152e:	f505 6580 	add.w	r5, r5, #1024	; 0x400
 8001532:	42a8      	cmp	r0, r5
 8001534:	d010      	beq.n	8001558 <HAL_GPIO_Init+0x1bc>
 8001536:	f505 6580 	add.w	r5, r5, #1024	; 0x400
 800153a:	42a8      	cmp	r0, r5
 800153c:	bf0c      	ite	eq
 800153e:	2507      	moveq	r5, #7
 8001540:	2508      	movne	r5, #8
 8001542:	e74e      	b.n	80013e2 <HAL_GPIO_Init+0x46>
 8001544:	2501      	movs	r5, #1
 8001546:	e74c      	b.n	80013e2 <HAL_GPIO_Init+0x46>
 8001548:	2502      	movs	r5, #2
 800154a:	e74a      	b.n	80013e2 <HAL_GPIO_Init+0x46>
 800154c:	2503      	movs	r5, #3
 800154e:	e748      	b.n	80013e2 <HAL_GPIO_Init+0x46>
 8001550:	2504      	movs	r5, #4
 8001552:	e746      	b.n	80013e2 <HAL_GPIO_Init+0x46>
 8001554:	2505      	movs	r5, #5
 8001556:	e744      	b.n	80013e2 <HAL_GPIO_Init+0x46>
 8001558:	2506      	movs	r5, #6
 800155a:	e742      	b.n	80013e2 <HAL_GPIO_Init+0x46>
 800155c:	b003      	add	sp, #12
 800155e:	e8bd 8ff0 	ldmia.w	sp!, {r4, r5, r6, r7, r8, r9, sl, fp, pc}
 8001562:	bf00      	nop
 8001564:	40023800 	.word	0x40023800
 8001568:	40013c00 	.word	0x40013c00
 800156c:	40020800 	.word	0x40020800
 8001570:	40020000 	.word	0x40020000
 8001574:	40020400 	.word	0x40020400

08001578 <HAL_GPIO_ReadPin>:
 8001578:	6903      	ldr	r3, [r0, #16]
 800157a:	4219      	tst	r1, r3
 800157c:	bf14      	ite	ne
 800157e:	2001      	movne	r0, #1
 8001580:	2000      	moveq	r0, #0
 8001582:	4770      	bx	lr

08001584 <HAL_IWDG_Init>:
 8001584:	b308      	cbz	r0, 80015ca <HAL_IWDG_Init+0x46>
 8001586:	b538      	push	{r3, r4, r5, lr}
 8001588:	4604      	mov	r4, r0
 800158a:	6803      	ldr	r3, [r0, #0]
 800158c:	f64c 42cc 	movw	r2, #52428	; 0xcccc
 8001590:	601a      	str	r2, [r3, #0]
 8001592:	6803      	ldr	r3, [r0, #0]
 8001594:	f245 5255 	movw	r2, #21845	; 0x5555
 8001598:	601a      	str	r2, [r3, #0]
 800159a:	6803      	ldr	r3, [r0, #0]
 800159c:	6842      	ldr	r2, [r0, #4]
 800159e:	605a      	str	r2, [r3, #4]
 80015a0:	6803      	ldr	r3, [r0, #0]
 80015a2:	6882      	ldr	r2, [r0, #8]
 80015a4:	609a      	str	r2, [r3, #8]
 80015a6:	f7ff fc97 	bl	8000ed8 <HAL_GetTick>
 80015aa:	4605      	mov	r5, r0
 80015ac:	6823      	ldr	r3, [r4, #0]
 80015ae:	68da      	ldr	r2, [r3, #12]
 80015b0:	b132      	cbz	r2, 80015c0 <HAL_IWDG_Init+0x3c>
 80015b2:	f7ff fc91 	bl	8000ed8 <HAL_GetTick>
 80015b6:	1b40      	subs	r0, r0, r5
 80015b8:	2830      	cmp	r0, #48	; 0x30
 80015ba:	d9f7      	bls.n	80015ac <HAL_IWDG_Init+0x28>
 80015bc:	2003      	movs	r0, #3
 80015be:	e003      	b.n	80015c8 <HAL_IWDG_Init+0x44>
 80015c0:	f64a 22aa 	movw	r2, #43690	; 0xaaaa
 80015c4:	601a      	str	r2, [r3, #0]
 80015c6:	2000      	movs	r0, #0
 80015c8:	bd38      	pop	{r3, r4, r5, pc}
 80015ca:	2001      	movs	r0, #1
 80015cc:	4770      	bx	lr

080015ce <HAL_IWDG_Refresh>:
 80015ce:	6803      	ldr	r3, [r0, #0]
 80015d0:	f64a 22aa 	movw	r2, #43690	; 0xaaaa
 80015d4:	601a      	str	r2, [r3, #0]
 80015d6:	2000      	movs	r0, #0
 80015d8:	4770      	bx	lr
	...

080015dc <HAL_RCC_OscConfig>:
 80015dc:	2800      	cmp	r0, #0
 80015de:	f000 81e6 	beq.w	80019ae <HAL_RCC_OscConfig+0x3d2>
 80015e2:	e92d 41f0 	stmdb	sp!, {r4, r5, r6, r7, r8, lr}
 80015e6:	b082      	sub	sp, #8
 80015e8:	4604      	mov	r4, r0
 80015ea:	6803      	ldr	r3, [r0, #0]
 80015ec:	f013 0f01 	tst.w	r3, #1
 80015f0:	d03b      	beq.n	800166a <HAL_RCC_OscConfig+0x8e>
 80015f2:	4ba8      	ldr	r3, [pc, #672]	; (8001894 <HAL_RCC_OscConfig+0x2b8>)
 80015f4:	689b      	ldr	r3, [r3, #8]
 80015f6:	f003 030c 	and.w	r3, r3, #12
 80015fa:	2b04      	cmp	r3, #4
 80015fc:	d02c      	beq.n	8001658 <HAL_RCC_OscConfig+0x7c>
 80015fe:	4ba5      	ldr	r3, [pc, #660]	; (8001894 <HAL_RCC_OscConfig+0x2b8>)
 8001600:	689b      	ldr	r3, [r3, #8]
 8001602:	f003 030c 	and.w	r3, r3, #12
 8001606:	2b08      	cmp	r3, #8
 8001608:	d021      	beq.n	800164e <HAL_RCC_OscConfig+0x72>
 800160a:	6863      	ldr	r3, [r4, #4]
 800160c:	f5b3 3f80 	cmp.w	r3, #65536	; 0x10000
 8001610:	d04f      	beq.n	80016b2 <HAL_RCC_OscConfig+0xd6>
 8001612:	f5b3 2fa0 	cmp.w	r3, #327680	; 0x50000
 8001616:	d052      	beq.n	80016be <HAL_RCC_OscConfig+0xe2>
 8001618:	4b9e      	ldr	r3, [pc, #632]	; (8001894 <HAL_RCC_OscConfig+0x2b8>)
 800161a:	681a      	ldr	r2, [r3, #0]
 800161c:	f422 3280 	bic.w	r2, r2, #65536	; 0x10000
 8001620:	601a      	str	r2, [r3, #0]
 8001622:	681a      	ldr	r2, [r3, #0]
 8001624:	f422 2280 	bic.w	r2, r2, #262144	; 0x40000
 8001628:	601a      	str	r2, [r3, #0]
 800162a:	6863      	ldr	r3, [r4, #4]
 800162c:	2b00      	cmp	r3, #0
 800162e:	d050      	beq.n	80016d2 <HAL_RCC_OscConfig+0xf6>
 8001630:	f7ff fc52 	bl	8000ed8 <HAL_GetTick>
 8001634:	4606      	mov	r6, r0
 8001636:	4d97      	ldr	r5, [pc, #604]	; (8001894 <HAL_RCC_OscConfig+0x2b8>)
 8001638:	682b      	ldr	r3, [r5, #0]
 800163a:	f413 3f00 	tst.w	r3, #131072	; 0x20000
 800163e:	d114      	bne.n	800166a <HAL_RCC_OscConfig+0x8e>
 8001640:	f7ff fc4a 	bl	8000ed8 <HAL_GetTick>
 8001644:	1b80      	subs	r0, r0, r6
 8001646:	2864      	cmp	r0, #100	; 0x64
 8001648:	d9f6      	bls.n	8001638 <HAL_RCC_OscConfig+0x5c>
 800164a:	2003      	movs	r0, #3
 800164c:	e1b4      	b.n	80019b8 <HAL_RCC_OscConfig+0x3dc>
 800164e:	4b91      	ldr	r3, [pc, #580]	; (8001894 <HAL_RCC_OscConfig+0x2b8>)
 8001650:	685b      	ldr	r3, [r3, #4]
 8001652:	f413 0f80 	tst.w	r3, #4194304	; 0x400000
 8001656:	d0d8      	beq.n	800160a <HAL_RCC_OscConfig+0x2e>
 8001658:	4b8e      	ldr	r3, [pc, #568]	; (8001894 <HAL_RCC_OscConfig+0x2b8>)
 800165a:	681b      	ldr	r3, [r3, #0]
 800165c:	f413 3f00 	tst.w	r3, #131072	; 0x20000
 8001660:	d003      	beq.n	800166a <HAL_RCC_OscConfig+0x8e>
 8001662:	6863      	ldr	r3, [r4, #4]
 8001664:	2b00      	cmp	r3, #0
 8001666:	f000 81a4 	beq.w	80019b2 <HAL_RCC_OscConfig+0x3d6>
 800166a:	6823      	ldr	r3, [r4, #0]
 800166c:	f013 0f02 	tst.w	r3, #2
 8001670:	d055      	beq.n	800171e <HAL_RCC_OscConfig+0x142>
 8001672:	4b88      	ldr	r3, [pc, #544]	; (8001894 <HAL_RCC_OscConfig+0x2b8>)
 8001674:	689b      	ldr	r3, [r3, #8]
 8001676:	f013 0f0c 	tst.w	r3, #12
 800167a:	d03e      	beq.n	80016fa <HAL_RCC_OscConfig+0x11e>
 800167c:	4b85      	ldr	r3, [pc, #532]	; (8001894 <HAL_RCC_OscConfig+0x2b8>)
 800167e:	689b      	ldr	r3, [r3, #8]
 8001680:	f003 030c 	and.w	r3, r3, #12
 8001684:	2b08      	cmp	r3, #8
 8001686:	d033      	beq.n	80016f0 <HAL_RCC_OscConfig+0x114>
 8001688:	68e3      	ldr	r3, [r4, #12]
 800168a:	2b00      	cmp	r3, #0
 800168c:	d068      	beq.n	8001760 <HAL_RCC_OscConfig+0x184>
 800168e:	4b82      	ldr	r3, [pc, #520]	; (8001898 <HAL_RCC_OscConfig+0x2bc>)
 8001690:	2201      	movs	r2, #1
 8001692:	601a      	str	r2, [r3, #0]
 8001694:	f7ff fc20 	bl	8000ed8 <HAL_GetTick>
 8001698:	4606      	mov	r6, r0
 800169a:	4d7e      	ldr	r5, [pc, #504]	; (8001894 <HAL_RCC_OscConfig+0x2b8>)
 800169c:	682b      	ldr	r3, [r5, #0]
 800169e:	f013 0f02 	tst.w	r3, #2
 80016a2:	d154      	bne.n	800174e <HAL_RCC_OscConfig+0x172>
 80016a4:	f7ff fc18 	bl	8000ed8 <HAL_GetTick>
 80016a8:	1b80      	subs	r0, r0, r6
 80016aa:	2802      	cmp	r0, #2
 80016ac:	d9f6      	bls.n	800169c <HAL_RCC_OscConfig+0xc0>
 80016ae:	2003      	movs	r0, #3
 80016b0:	e182      	b.n	80019b8 <HAL_RCC_OscConfig+0x3dc>
 80016b2:	4a78      	ldr	r2, [pc, #480]	; (8001894 <HAL_RCC_OscConfig+0x2b8>)
 80016b4:	6813      	ldr	r3, [r2, #0]
 80016b6:	f443 3380 	orr.w	r3, r3, #65536	; 0x10000
 80016ba:	6013      	str	r3, [r2, #0]
 80016bc:	e7b5      	b.n	800162a <HAL_RCC_OscConfig+0x4e>
 80016be:	4b75      	ldr	r3, [pc, #468]	; (8001894 <HAL_RCC_OscConfig+0x2b8>)
 80016c0:	681a      	ldr	r2, [r3, #0]
 80016c2:	f442 2280 	orr.w	r2, r2, #262144	; 0x40000
 80016c6:	601a      	str	r2, [r3, #0]
 80016c8:	681a      	ldr	r2, [r3, #0]
 80016ca:	f442 3280 	orr.w	r2, r2, #65536	; 0x10000
 80016ce:	601a      	str	r2, [r3, #0]
 80016d0:	e7ab      	b.n	800162a <HAL_RCC_OscConfig+0x4e>
 80016d2:	f7ff fc01 	bl	8000ed8 <HAL_GetTick>
 80016d6:	4606      	mov	r6, r0
 80016d8:	4d6e      	ldr	r5, [pc, #440]	; (8001894 <HAL_RCC_OscConfig+0x2b8>)
 80016da:	682b      	ldr	r3, [r5, #0]
 80016dc:	f413 3f00 	tst.w	r3, #131072	; 0x20000
 80016e0:	d0c3      	beq.n	800166a <HAL_RCC_OscConfig+0x8e>
 80016e2:	f7ff fbf9 	bl	8000ed8 <HAL_GetTick>
 80016e6:	1b80      	subs	r0, r0, r6
 80016e8:	2864      	cmp	r0, #100	; 0x64
 80016ea:	d9f6      	bls.n	80016da <HAL_RCC_OscConfig+0xfe>
 80016ec:	2003      	movs	r0, #3
 80016ee:	e163      	b.n	80019b8 <HAL_RCC_OscConfig+0x3dc>
 80016f0:	4b68      	ldr	r3, [pc, #416]	; (8001894 <HAL_RCC_OscConfig+0x2b8>)
 80016f2:	685b      	ldr	r3, [r3, #4]
 80016f4:	f413 0f80 	tst.w	r3, #4194304	; 0x400000
 80016f8:	d1c6      	bne.n	8001688 <HAL_RCC_OscConfig+0xac>
 80016fa:	4b66      	ldr	r3, [pc, #408]	; (8001894 <HAL_RCC_OscConfig+0x2b8>)
 80016fc:	681b      	ldr	r3, [r3, #0]
 80016fe:	f013 0f02 	tst.w	r3, #2
 8001702:	d004      	beq.n	800170e <HAL_RCC_OscConfig+0x132>
 8001704:	68e3      	ldr	r3, [r4, #12]
 8001706:	2b01      	cmp	r3, #1
 8001708:	d001      	beq.n	800170e <HAL_RCC_OscConfig+0x132>
 800170a:	2001      	movs	r0, #1
 800170c:	e154      	b.n	80019b8 <HAL_RCC_OscConfig+0x3dc>
 800170e:	4a61      	ldr	r2, [pc, #388]	; (8001894 <HAL_RCC_OscConfig+0x2b8>)
 8001710:	6813      	ldr	r3, [r2, #0]
 8001712:	6921      	ldr	r1, [r4, #16]
 8001714:	f023 03f8 	bic.w	r3, r3, #248	; 0xf8
 8001718:	ea43 03c1 	orr.w	r3, r3, r1, lsl #3
 800171c:	6013      	str	r3, [r2, #0]
 800171e:	6823      	ldr	r3, [r4, #0]
 8001720:	f013 0f08 	tst.w	r3, #8
 8001724:	d040      	beq.n	80017a8 <HAL_RCC_OscConfig+0x1cc>
 8001726:	6963      	ldr	r3, [r4, #20]
 8001728:	b363      	cbz	r3, 8001784 <HAL_RCC_OscConfig+0x1a8>
 800172a:	4b5c      	ldr	r3, [pc, #368]	; (800189c <HAL_RCC_OscConfig+0x2c0>)
 800172c:	2201      	movs	r2, #1
 800172e:	601a      	str	r2, [r3, #0]
 8001730:	f7ff fbd2 	bl	8000ed8 <HAL_GetTick>
 8001734:	4606      	mov	r6, r0
 8001736:	4d57      	ldr	r5, [pc, #348]	; (8001894 <HAL_RCC_OscConfig+0x2b8>)
 8001738:	6f6b      	ldr	r3, [r5, #116]	; 0x74
 800173a:	f013 0f02 	tst.w	r3, #2
 800173e:	d133      	bne.n	80017a8 <HAL_RCC_OscConfig+0x1cc>
 8001740:	f7ff fbca 	bl	8000ed8 <HAL_GetTick>
 8001744:	1b80      	subs	r0, r0, r6
 8001746:	2802      	cmp	r0, #2
 8001748:	d9f6      	bls.n	8001738 <HAL_RCC_OscConfig+0x15c>
 800174a:	2003      	movs	r0, #3
 800174c:	e134      	b.n	80019b8 <HAL_RCC_OscConfig+0x3dc>
 800174e:	4a51      	ldr	r2, [pc, #324]	; (8001894 <HAL_RCC_OscConfig+0x2b8>)
 8001750:	6813      	ldr	r3, [r2, #0]
 8001752:	6921      	ldr	r1, [r4, #16]
 8001754:	f023 03f8 	bic.w	r3, r3, #248	; 0xf8
 8001758:	ea43 03c1 	orr.w	r3, r3, r1, lsl #3
 800175c:	6013      	str	r3, [r2, #0]
 800175e:	e7de      	b.n	800171e <HAL_RCC_OscConfig+0x142>
 8001760:	4b4d      	ldr	r3, [pc, #308]	; (8001898 <HAL_RCC_OscConfig+0x2bc>)
 8001762:	2200      	movs	r2, #0
 8001764:	601a      	str	r2, [r3, #0]
 8001766:	f7ff fbb7 	bl	8000ed8 <HAL_GetTick>
 800176a:	4606      	mov	r6, r0
 800176c:	4d49      	ldr	r5, [pc, #292]	; (8001894 <HAL_RCC_OscConfig+0x2b8>)
 800176e:	682b      	ldr	r3, [r5, #0]
 8001770:	f013 0f02 	tst.w	r3, #2
 8001774:	d0d3      	beq.n	800171e <HAL_RCC_OscConfig+0x142>
 8001776:	f7ff fbaf 	bl	8000ed8 <HAL_GetTick>
 800177a:	1b80      	subs	r0, r0, r6
 800177c:	2802      	cmp	r0, #2
 800177e:	d9f6      	bls.n	800176e <HAL_RCC_OscConfig+0x192>
 8001780:	2003      	movs	r0, #3
 8001782:	e119      	b.n	80019b8 <HAL_RCC_OscConfig+0x3dc>
 8001784:	4b45      	ldr	r3, [pc, #276]	; (800189c <HAL_RCC_OscConfig+0x2c0>)
 8001786:	2200      	movs	r2, #0
 8001788:	601a      	str	r2, [r3, #0]
 800178a:	f7ff fba5 	bl	8000ed8 <HAL_GetTick>
 800178e:	4606      	mov	r6, r0
 8001790:	4d40      	ldr	r5, [pc, #256]	; (8001894 <HAL_RCC_OscConfig+0x2b8>)
 8001792:	6f6b      	ldr	r3, [r5, #116]	; 0x74
 8001794:	f013 0f02 	tst.w	r3, #2
 8001798:	d006      	beq.n	80017a8 <HAL_RCC_OscConfig+0x1cc>
 800179a:	f7ff fb9d 	bl	8000ed8 <HAL_GetTick>
 800179e:	1b80      	subs	r0, r0, r6
 80017a0:	2802      	cmp	r0, #2
 80017a2:	d9f6      	bls.n	8001792 <HAL_RCC_OscConfig+0x1b6>
 80017a4:	2003      	movs	r0, #3
 80017a6:	e107      	b.n	80019b8 <HAL_RCC_OscConfig+0x3dc>
 80017a8:	6823      	ldr	r3, [r4, #0]
 80017aa:	f013 0f04 	tst.w	r3, #4
 80017ae:	d07a      	beq.n	80018a6 <HAL_RCC_OscConfig+0x2ca>
 80017b0:	4b38      	ldr	r3, [pc, #224]	; (8001894 <HAL_RCC_OscConfig+0x2b8>)
 80017b2:	6c1b      	ldr	r3, [r3, #64]	; 0x40
 80017b4:	f013 5f80 	tst.w	r3, #268435456	; 0x10000000
 80017b8:	d134      	bne.n	8001824 <HAL_RCC_OscConfig+0x248>
 80017ba:	2300      	movs	r3, #0
 80017bc:	9301      	str	r3, [sp, #4]
 80017be:	4b35      	ldr	r3, [pc, #212]	; (8001894 <HAL_RCC_OscConfig+0x2b8>)
 80017c0:	6c1a      	ldr	r2, [r3, #64]	; 0x40
 80017c2:	f042 5280 	orr.w	r2, r2, #268435456	; 0x10000000
 80017c6:	641a      	str	r2, [r3, #64]	; 0x40
 80017c8:	6c1b      	ldr	r3, [r3, #64]	; 0x40
 80017ca:	f003 5380 	and.w	r3, r3, #268435456	; 0x10000000
 80017ce:	9301      	str	r3, [sp, #4]
 80017d0:	9b01      	ldr	r3, [sp, #4]
 80017d2:	2501      	movs	r5, #1
 80017d4:	4b32      	ldr	r3, [pc, #200]	; (80018a0 <HAL_RCC_OscConfig+0x2c4>)
 80017d6:	681b      	ldr	r3, [r3, #0]
 80017d8:	f413 7f80 	tst.w	r3, #256	; 0x100
 80017dc:	d024      	beq.n	8001828 <HAL_RCC_OscConfig+0x24c>
 80017de:	68a3      	ldr	r3, [r4, #8]
 80017e0:	2b01      	cmp	r3, #1
 80017e2:	d035      	beq.n	8001850 <HAL_RCC_OscConfig+0x274>
 80017e4:	2b05      	cmp	r3, #5
 80017e6:	d039      	beq.n	800185c <HAL_RCC_OscConfig+0x280>
 80017e8:	4b2a      	ldr	r3, [pc, #168]	; (8001894 <HAL_RCC_OscConfig+0x2b8>)
 80017ea:	6f1a      	ldr	r2, [r3, #112]	; 0x70
 80017ec:	f022 0201 	bic.w	r2, r2, #1
 80017f0:	671a      	str	r2, [r3, #112]	; 0x70
 80017f2:	6f1a      	ldr	r2, [r3, #112]	; 0x70
 80017f4:	f022 0204 	bic.w	r2, r2, #4
 80017f8:	671a      	str	r2, [r3, #112]	; 0x70
 80017fa:	68a3      	ldr	r3, [r4, #8]
 80017fc:	2b00      	cmp	r3, #0
 80017fe:	d037      	beq.n	8001870 <HAL_RCC_OscConfig+0x294>
 8001800:	f7ff fb6a 	bl	8000ed8 <HAL_GetTick>
 8001804:	4680      	mov	r8, r0
 8001806:	4e23      	ldr	r6, [pc, #140]	; (8001894 <HAL_RCC_OscConfig+0x2b8>)
 8001808:	f241 3788 	movw	r7, #5000	; 0x1388
 800180c:	6f33      	ldr	r3, [r6, #112]	; 0x70
 800180e:	f013 0f02 	tst.w	r3, #2
 8001812:	d147      	bne.n	80018a4 <HAL_RCC_OscConfig+0x2c8>
 8001814:	f7ff fb60 	bl	8000ed8 <HAL_GetTick>
 8001818:	eba0 0008 	sub.w	r0, r0, r8
 800181c:	42b8      	cmp	r0, r7
 800181e:	d9f5      	bls.n	800180c <HAL_RCC_OscConfig+0x230>
 8001820:	2003      	movs	r0, #3
 8001822:	e0c9      	b.n	80019b8 <HAL_RCC_OscConfig+0x3dc>
 8001824:	2500      	movs	r5, #0
 8001826:	e7d5      	b.n	80017d4 <HAL_RCC_OscConfig+0x1f8>
 8001828:	4a1d      	ldr	r2, [pc, #116]	; (80018a0 <HAL_RCC_OscConfig+0x2c4>)
 800182a:	6813      	ldr	r3, [r2, #0]
 800182c:	f443 7380 	orr.w	r3, r3, #256	; 0x100
 8001830:	6013      	str	r3, [r2, #0]
 8001832:	f7ff fb51 	bl	8000ed8 <HAL_GetTick>
 8001836:	4607      	mov	r7, r0
 8001838:	4e19      	ldr	r6, [pc, #100]	; (80018a0 <HAL_RCC_OscConfig+0x2c4>)
 800183a:	6833      	ldr	r3, [r6, #0]
 800183c:	f413 7f80 	tst.w	r3, #256	; 0x100
 8001840:	d1cd      	bne.n	80017de <HAL_RCC_OscConfig+0x202>
 8001842:	f7ff fb49 	bl	8000ed8 <HAL_GetTick>
 8001846:	1bc0      	subs	r0, r0, r7
 8001848:	2802      	cmp	r0, #2
 800184a:	d9f6      	bls.n	800183a <HAL_RCC_OscConfig+0x25e>
 800184c:	2003      	movs	r0, #3
 800184e:	e0b3      	b.n	80019b8 <HAL_RCC_OscConfig+0x3dc>
 8001850:	4a10      	ldr	r2, [pc, #64]	; (8001894 <HAL_RCC_OscConfig+0x2b8>)
 8001852:	6f13      	ldr	r3, [r2, #112]	; 0x70
 8001854:	f043 0301 	orr.w	r3, r3, #1
 8001858:	6713      	str	r3, [r2, #112]	; 0x70
 800185a:	e7ce      	b.n	80017fa <HAL_RCC_OscConfig+0x21e>
 800185c:	4b0d      	ldr	r3, [pc, #52]	; (8001894 <HAL_RCC_OscConfig+0x2b8>)
 800185e:	6f1a      	ldr	r2, [r3, #112]	; 0x70
 8001860:	f042 0204 	orr.w	r2, r2, #4
 8001864:	671a      	str	r2, [r3, #112]	; 0x70
 8001866:	6f1a      	ldr	r2, [r3, #112]	; 0x70
 8001868:	f042 0201 	orr.w	r2, r2, #1
 800186c:	671a      	str	r2, [r3, #112]	; 0x70
 800186e:	e7c4      	b.n	80017fa <HAL_RCC_OscConfig+0x21e>
 8001870:	f7ff fb32 	bl	8000ed8 <HAL_GetTick>
 8001874:	4680      	mov	r8, r0
 8001876:	4e07      	ldr	r6, [pc, #28]	; (8001894 <HAL_RCC_OscConfig+0x2b8>)
 8001878:	f241 3788 	movw	r7, #5000	; 0x1388
 800187c:	6f33      	ldr	r3, [r6, #112]	; 0x70
 800187e:	f013 0f02 	tst.w	r3, #2
 8001882:	d00f      	beq.n	80018a4 <HAL_RCC_OscConfig+0x2c8>
 8001884:	f7ff fb28 	bl	8000ed8 <HAL_GetTick>
 8001888:	eba0 0008 	sub.w	r0, r0, r8
 800188c:	42b8      	cmp	r0, r7
 800188e:	d9f5      	bls.n	800187c <HAL_RCC_OscConfig+0x2a0>
 8001890:	2003      	movs	r0, #3
 8001892:	e091      	b.n	80019b8 <HAL_RCC_OscConfig+0x3dc>
 8001894:	40023800 	.word	0x40023800
 8001898:	42470000 	.word	0x42470000
 800189c:	42470e80 	.word	0x42470e80
 80018a0:	40007000 	.word	0x40007000
 80018a4:	b9ed      	cbnz	r5, 80018e2 <HAL_RCC_OscConfig+0x306>
 80018a6:	69a3      	ldr	r3, [r4, #24]
 80018a8:	2b00      	cmp	r3, #0
 80018aa:	f000 8084 	beq.w	80019b6 <HAL_RCC_OscConfig+0x3da>
 80018ae:	4a45      	ldr	r2, [pc, #276]	; (80019c4 <HAL_RCC_OscConfig+0x3e8>)
 80018b0:	6892      	ldr	r2, [r2, #8]
 80018b2:	f002 020c 	and.w	r2, r2, #12
 80018b6:	2a08      	cmp	r2, #8
 80018b8:	d051      	beq.n	800195e <HAL_RCC_OscConfig+0x382>
 80018ba:	2b02      	cmp	r3, #2
 80018bc:	d017      	beq.n	80018ee <HAL_RCC_OscConfig+0x312>
 80018be:	4b42      	ldr	r3, [pc, #264]	; (80019c8 <HAL_RCC_OscConfig+0x3ec>)
 80018c0:	2200      	movs	r2, #0
 80018c2:	601a      	str	r2, [r3, #0]
 80018c4:	f7ff fb08 	bl	8000ed8 <HAL_GetTick>
 80018c8:	4605      	mov	r5, r0
 80018ca:	4c3e      	ldr	r4, [pc, #248]	; (80019c4 <HAL_RCC_OscConfig+0x3e8>)
 80018cc:	6823      	ldr	r3, [r4, #0]
 80018ce:	f013 7f00 	tst.w	r3, #33554432	; 0x2000000
 80018d2:	d042      	beq.n	800195a <HAL_RCC_OscConfig+0x37e>
 80018d4:	f7ff fb00 	bl	8000ed8 <HAL_GetTick>
 80018d8:	1b40      	subs	r0, r0, r5
 80018da:	2802      	cmp	r0, #2
 80018dc:	d9f6      	bls.n	80018cc <HAL_RCC_OscConfig+0x2f0>
 80018de:	2003      	movs	r0, #3
 80018e0:	e06a      	b.n	80019b8 <HAL_RCC_OscConfig+0x3dc>
 80018e2:	4a38      	ldr	r2, [pc, #224]	; (80019c4 <HAL_RCC_OscConfig+0x3e8>)
 80018e4:	6c13      	ldr	r3, [r2, #64]	; 0x40
 80018e6:	f023 5380 	bic.w	r3, r3, #268435456	; 0x10000000
 80018ea:	6413      	str	r3, [r2, #64]	; 0x40
 80018ec:	e7db      	b.n	80018a6 <HAL_RCC_OscConfig+0x2ca>
 80018ee:	4b36      	ldr	r3, [pc, #216]	; (80019c8 <HAL_RCC_OscConfig+0x3ec>)
 80018f0:	2200      	movs	r2, #0
 80018f2:	601a      	str	r2, [r3, #0]
 80018f4:	f7ff faf0 	bl	8000ed8 <HAL_GetTick>
 80018f8:	4606      	mov	r6, r0
 80018fa:	4d32      	ldr	r5, [pc, #200]	; (80019c4 <HAL_RCC_OscConfig+0x3e8>)
 80018fc:	682b      	ldr	r3, [r5, #0]
 80018fe:	f013 7f00 	tst.w	r3, #33554432	; 0x2000000
 8001902:	d006      	beq.n	8001912 <HAL_RCC_OscConfig+0x336>
 8001904:	f7ff fae8 	bl	8000ed8 <HAL_GetTick>
 8001908:	1b80      	subs	r0, r0, r6
 800190a:	2802      	cmp	r0, #2
 800190c:	d9f6      	bls.n	80018fc <HAL_RCC_OscConfig+0x320>
 800190e:	2003      	movs	r0, #3
 8001910:	e052      	b.n	80019b8 <HAL_RCC_OscConfig+0x3dc>
 8001912:	69e3      	ldr	r3, [r4, #28]
 8001914:	6a22      	ldr	r2, [r4, #32]
 8001916:	4313      	orrs	r3, r2
 8001918:	6a62      	ldr	r2, [r4, #36]	; 0x24
 800191a:	ea43 1382 	orr.w	r3, r3, r2, lsl #6
 800191e:	6ae2      	ldr	r2, [r4, #44]	; 0x2c
 8001920:	ea43 6302 	orr.w	r3, r3, r2, lsl #24
 8001924:	6aa2      	ldr	r2, [r4, #40]	; 0x28
 8001926:	0852      	lsrs	r2, r2, #1
 8001928:	3a01      	subs	r2, #1
 800192a:	ea43 4302 	orr.w	r3, r3, r2, lsl #16
 800192e:	4a25      	ldr	r2, [pc, #148]	; (80019c4 <HAL_RCC_OscConfig+0x3e8>)
 8001930:	6053      	str	r3, [r2, #4]
 8001932:	4b25      	ldr	r3, [pc, #148]	; (80019c8 <HAL_RCC_OscConfig+0x3ec>)
 8001934:	2201      	movs	r2, #1
 8001936:	601a      	str	r2, [r3, #0]
 8001938:	f7ff face 	bl	8000ed8 <HAL_GetTick>
 800193c:	4605      	mov	r5, r0
 800193e:	4c21      	ldr	r4, [pc, #132]	; (80019c4 <HAL_RCC_OscConfig+0x3e8>)
 8001940:	6823      	ldr	r3, [r4, #0]
 8001942:	f013 7f00 	tst.w	r3, #33554432	; 0x2000000
 8001946:	d106      	bne.n	8001956 <HAL_RCC_OscConfig+0x37a>
 8001948:	f7ff fac6 	bl	8000ed8 <HAL_GetTick>
 800194c:	1b40      	subs	r0, r0, r5
 800194e:	2802      	cmp	r0, #2
 8001950:	d9f6      	bls.n	8001940 <HAL_RCC_OscConfig+0x364>
 8001952:	2003      	movs	r0, #3
 8001954:	e030      	b.n	80019b8 <HAL_RCC_OscConfig+0x3dc>
 8001956:	2000      	movs	r0, #0
 8001958:	e02e      	b.n	80019b8 <HAL_RCC_OscConfig+0x3dc>
 800195a:	2000      	movs	r0, #0
 800195c:	e02c      	b.n	80019b8 <HAL_RCC_OscConfig+0x3dc>
 800195e:	2b01      	cmp	r3, #1
 8001960:	d02d      	beq.n	80019be <HAL_RCC_OscConfig+0x3e2>
 8001962:	4b18      	ldr	r3, [pc, #96]	; (80019c4 <HAL_RCC_OscConfig+0x3e8>)
 8001964:	685b      	ldr	r3, [r3, #4]
 8001966:	f403 0180 	and.w	r1, r3, #4194304	; 0x400000
 800196a:	69e2      	ldr	r2, [r4, #28]
 800196c:	4291      	cmp	r1, r2
 800196e:	d001      	beq.n	8001974 <HAL_RCC_OscConfig+0x398>
 8001970:	2001      	movs	r0, #1
 8001972:	e021      	b.n	80019b8 <HAL_RCC_OscConfig+0x3dc>
 8001974:	f003 023f 	and.w	r2, r3, #63	; 0x3f
 8001978:	6a21      	ldr	r1, [r4, #32]
 800197a:	428a      	cmp	r2, r1
 800197c:	d001      	beq.n	8001982 <HAL_RCC_OscConfig+0x3a6>
 800197e:	2001      	movs	r0, #1
 8001980:	e01a      	b.n	80019b8 <HAL_RCC_OscConfig+0x3dc>
 8001982:	6a61      	ldr	r1, [r4, #36]	; 0x24
 8001984:	f647 72c0 	movw	r2, #32704	; 0x7fc0
 8001988:	401a      	ands	r2, r3
 800198a:	428a      	cmp	r2, r1
 800198c:	d001      	beq.n	8001992 <HAL_RCC_OscConfig+0x3b6>
 800198e:	2001      	movs	r0, #1
 8001990:	e012      	b.n	80019b8 <HAL_RCC_OscConfig+0x3dc>
 8001992:	f403 3240 	and.w	r2, r3, #196608	; 0x30000
 8001996:	6aa1      	ldr	r1, [r4, #40]	; 0x28
 8001998:	428a      	cmp	r2, r1
 800199a:	d001      	beq.n	80019a0 <HAL_RCC_OscConfig+0x3c4>
 800199c:	2001      	movs	r0, #1
 800199e:	e00b      	b.n	80019b8 <HAL_RCC_OscConfig+0x3dc>
 80019a0:	f003 6370 	and.w	r3, r3, #251658240	; 0xf000000
 80019a4:	6ae0      	ldr	r0, [r4, #44]	; 0x2c
 80019a6:	1a18      	subs	r0, r3, r0
 80019a8:	bf18      	it	ne
 80019aa:	2001      	movne	r0, #1
 80019ac:	e004      	b.n	80019b8 <HAL_RCC_OscConfig+0x3dc>
 80019ae:	2001      	movs	r0, #1
 80019b0:	4770      	bx	lr
 80019b2:	2001      	movs	r0, #1
 80019b4:	e000      	b.n	80019b8 <HAL_RCC_OscConfig+0x3dc>
 80019b6:	2000      	movs	r0, #0
 80019b8:	b002      	add	sp, #8
 80019ba:	e8bd 81f0 	ldmia.w	sp!, {r4, r5, r6, r7, r8, pc}
 80019be:	2001      	movs	r0, #1
 80019c0:	e7fa      	b.n	80019b8 <HAL_RCC_OscConfig+0x3dc>
 80019c2:	bf00      	nop
 80019c4:	40023800 	.word	0x40023800
 80019c8:	42470060 	.word	0x42470060

080019cc <HAL_RCC_GetSysClockFreq>:
 80019cc:	4b32      	ldr	r3, [pc, #200]	; (8001a98 <HAL_RCC_GetSysClockFreq+0xcc>)
 80019ce:	689b      	ldr	r3, [r3, #8]
 80019d0:	f003 030c 	and.w	r3, r3, #12
 80019d4:	2b04      	cmp	r3, #4
 80019d6:	d003      	beq.n	80019e0 <HAL_RCC_GetSysClockFreq+0x14>
 80019d8:	2b08      	cmp	r3, #8
 80019da:	d003      	beq.n	80019e4 <HAL_RCC_GetSysClockFreq+0x18>
 80019dc:	482f      	ldr	r0, [pc, #188]	; (8001a9c <HAL_RCC_GetSysClockFreq+0xd0>)
 80019de:	4770      	bx	lr
 80019e0:	482f      	ldr	r0, [pc, #188]	; (8001aa0 <HAL_RCC_GetSysClockFreq+0xd4>)
 80019e2:	4770      	bx	lr
 80019e4:	e92d 4bf0 	stmdb	sp!, {r4, r5, r6, r7, r8, r9, fp, lr}
 80019e8:	4b2b      	ldr	r3, [pc, #172]	; (8001a98 <HAL_RCC_GetSysClockFreq+0xcc>)
 80019ea:	685a      	ldr	r2, [r3, #4]
 80019ec:	f002 023f 	and.w	r2, r2, #63	; 0x3f
 80019f0:	685b      	ldr	r3, [r3, #4]
 80019f2:	f413 0f80 	tst.w	r3, #4194304	; 0x400000
 80019f6:	d02b      	beq.n	8001a50 <HAL_RCC_GetSysClockFreq+0x84>
 80019f8:	4b27      	ldr	r3, [pc, #156]	; (8001a98 <HAL_RCC_GetSysClockFreq+0xcc>)
 80019fa:	685b      	ldr	r3, [r3, #4]
 80019fc:	f3c3 1388 	ubfx	r3, r3, #6, #9
 8001a00:	461e      	mov	r6, r3
 8001a02:	2700      	movs	r7, #0
 8001a04:	015c      	lsls	r4, r3, #5
 8001a06:	2500      	movs	r5, #0
 8001a08:	1ae4      	subs	r4, r4, r3
 8001a0a:	eb65 0507 	sbc.w	r5, r5, r7
 8001a0e:	01a9      	lsls	r1, r5, #6
 8001a10:	ea41 6194 	orr.w	r1, r1, r4, lsr #26
 8001a14:	01a0      	lsls	r0, r4, #6
 8001a16:	1b00      	subs	r0, r0, r4
 8001a18:	eb61 0105 	sbc.w	r1, r1, r5
 8001a1c:	00cb      	lsls	r3, r1, #3
 8001a1e:	ea43 7350 	orr.w	r3, r3, r0, lsr #29
 8001a22:	00c4      	lsls	r4, r0, #3
 8001a24:	19a0      	adds	r0, r4, r6
 8001a26:	eb43 0107 	adc.w	r1, r3, r7
 8001a2a:	024b      	lsls	r3, r1, #9
 8001a2c:	ea43 53d0 	orr.w	r3, r3, r0, lsr #23
 8001a30:	0244      	lsls	r4, r0, #9
 8001a32:	4620      	mov	r0, r4
 8001a34:	4619      	mov	r1, r3
 8001a36:	2300      	movs	r3, #0
 8001a38:	f7fe fbc6 	bl	80001c8 <__aeabi_uldivmod>
 8001a3c:	4b16      	ldr	r3, [pc, #88]	; (8001a98 <HAL_RCC_GetSysClockFreq+0xcc>)
 8001a3e:	685b      	ldr	r3, [r3, #4]
 8001a40:	f3c3 4301 	ubfx	r3, r3, #16, #2
 8001a44:	3301      	adds	r3, #1
 8001a46:	005b      	lsls	r3, r3, #1
 8001a48:	fbb0 f0f3 	udiv	r0, r0, r3
 8001a4c:	e8bd 8bf0 	ldmia.w	sp!, {r4, r5, r6, r7, r8, r9, fp, pc}
 8001a50:	4b11      	ldr	r3, [pc, #68]	; (8001a98 <HAL_RCC_GetSysClockFreq+0xcc>)
 8001a52:	685b      	ldr	r3, [r3, #4]
 8001a54:	f3c3 1388 	ubfx	r3, r3, #6, #9
 8001a58:	461e      	mov	r6, r3
 8001a5a:	2700      	movs	r7, #0
 8001a5c:	015c      	lsls	r4, r3, #5
 8001a5e:	2500      	movs	r5, #0
 8001a60:	1ae4      	subs	r4, r4, r3
 8001a62:	eb65 0507 	sbc.w	r5, r5, r7
 8001a66:	01a9      	lsls	r1, r5, #6
 8001a68:	ea41 6194 	orr.w	r1, r1, r4, lsr #26
 8001a6c:	01a0      	lsls	r0, r4, #6
 8001a6e:	1b00      	subs	r0, r0, r4
 8001a70:	eb61 0105 	sbc.w	r1, r1, r5
 8001a74:	00cb      	lsls	r3, r1, #3
 8001a76:	ea43 7350 	orr.w	r3, r3, r0, lsr #29
 8001a7a:	00c4      	lsls	r4, r0, #3
 8001a7c:	19a0      	adds	r0, r4, r6
 8001a7e:	eb43 0107 	adc.w	r1, r3, r7
 8001a82:	028b      	lsls	r3, r1, #10
 8001a84:	ea43 5390 	orr.w	r3, r3, r0, lsr #22
 8001a88:	0284      	lsls	r4, r0, #10
 8001a8a:	4620      	mov	r0, r4
 8001a8c:	4619      	mov	r1, r3
 8001a8e:	2300      	movs	r3, #0
 8001a90:	f7fe fb9a 	bl	80001c8 <__aeabi_uldivmod>
 8001a94:	e7d2      	b.n	8001a3c <HAL_RCC_GetSysClockFreq+0x70>
 8001a96:	bf00      	nop
 8001a98:	40023800 	.word	0x40023800
 8001a9c:	00f42400 	.word	0x00f42400
 8001aa0:	007a1200 	.word	0x007a1200

08001aa4 <HAL_RCC_ClockConfig>:
 8001aa4:	2800      	cmp	r0, #0
 8001aa6:	f000 80a1 	beq.w	8001bec <HAL_RCC_ClockConfig+0x148>
 8001aaa:	e92d 41f0 	stmdb	sp!, {r4, r5, r6, r7, r8, lr}
 8001aae:	4604      	mov	r4, r0
 8001ab0:	4b50      	ldr	r3, [pc, #320]	; (8001bf4 <HAL_RCC_ClockConfig+0x150>)
 8001ab2:	681b      	ldr	r3, [r3, #0]
 8001ab4:	f003 030f 	and.w	r3, r3, #15
 8001ab8:	428b      	cmp	r3, r1
 8001aba:	d20a      	bcs.n	8001ad2 <HAL_RCC_ClockConfig+0x2e>
 8001abc:	b2cb      	uxtb	r3, r1
 8001abe:	4a4d      	ldr	r2, [pc, #308]	; (8001bf4 <HAL_RCC_ClockConfig+0x150>)
 8001ac0:	7013      	strb	r3, [r2, #0]
 8001ac2:	6813      	ldr	r3, [r2, #0]
 8001ac4:	f003 030f 	and.w	r3, r3, #15
 8001ac8:	428b      	cmp	r3, r1
 8001aca:	d002      	beq.n	8001ad2 <HAL_RCC_ClockConfig+0x2e>
 8001acc:	2001      	movs	r0, #1
 8001ace:	e8bd 81f0 	ldmia.w	sp!, {r4, r5, r6, r7, r8, pc}
 8001ad2:	6823      	ldr	r3, [r4, #0]
 8001ad4:	f013 0f02 	tst.w	r3, #2
 8001ad8:	d017      	beq.n	8001b0a <HAL_RCC_ClockConfig+0x66>
 8001ada:	f013 0f04 	tst.w	r3, #4
 8001ade:	d004      	beq.n	8001aea <HAL_RCC_ClockConfig+0x46>
 8001ae0:	4a45      	ldr	r2, [pc, #276]	; (8001bf8 <HAL_RCC_ClockConfig+0x154>)
 8001ae2:	6893      	ldr	r3, [r2, #8]
 8001ae4:	f443 53e0 	orr.w	r3, r3, #7168	; 0x1c00
 8001ae8:	6093      	str	r3, [r2, #8]
 8001aea:	6823      	ldr	r3, [r4, #0]
 8001aec:	f013 0f08 	tst.w	r3, #8
 8001af0:	d004      	beq.n	8001afc <HAL_RCC_ClockConfig+0x58>
 8001af2:	4a41      	ldr	r2, [pc, #260]	; (8001bf8 <HAL_RCC_ClockConfig+0x154>)
 8001af4:	6893      	ldr	r3, [r2, #8]
 8001af6:	f443 4360 	orr.w	r3, r3, #57344	; 0xe000
 8001afa:	6093      	str	r3, [r2, #8]
 8001afc:	4a3e      	ldr	r2, [pc, #248]	; (8001bf8 <HAL_RCC_ClockConfig+0x154>)
 8001afe:	6893      	ldr	r3, [r2, #8]
 8001b00:	f023 03f0 	bic.w	r3, r3, #240	; 0xf0
 8001b04:	68a0      	ldr	r0, [r4, #8]
 8001b06:	4303      	orrs	r3, r0
 8001b08:	6093      	str	r3, [r2, #8]
 8001b0a:	460d      	mov	r5, r1
 8001b0c:	6823      	ldr	r3, [r4, #0]
 8001b0e:	f013 0f01 	tst.w	r3, #1
 8001b12:	d033      	beq.n	8001b7c <HAL_RCC_ClockConfig+0xd8>
 8001b14:	6862      	ldr	r2, [r4, #4]
 8001b16:	2a01      	cmp	r2, #1
 8001b18:	d022      	beq.n	8001b60 <HAL_RCC_ClockConfig+0xbc>
 8001b1a:	1e93      	subs	r3, r2, #2
 8001b1c:	2b01      	cmp	r3, #1
 8001b1e:	d926      	bls.n	8001b6e <HAL_RCC_ClockConfig+0xca>
 8001b20:	4b35      	ldr	r3, [pc, #212]	; (8001bf8 <HAL_RCC_ClockConfig+0x154>)
 8001b22:	681b      	ldr	r3, [r3, #0]
 8001b24:	f013 0f02 	tst.w	r3, #2
 8001b28:	d062      	beq.n	8001bf0 <HAL_RCC_ClockConfig+0x14c>
 8001b2a:	4933      	ldr	r1, [pc, #204]	; (8001bf8 <HAL_RCC_ClockConfig+0x154>)
 8001b2c:	688b      	ldr	r3, [r1, #8]
 8001b2e:	f023 0303 	bic.w	r3, r3, #3
 8001b32:	4313      	orrs	r3, r2
 8001b34:	608b      	str	r3, [r1, #8]
 8001b36:	f7ff f9cf 	bl	8000ed8 <HAL_GetTick>
 8001b3a:	4680      	mov	r8, r0
 8001b3c:	4e2e      	ldr	r6, [pc, #184]	; (8001bf8 <HAL_RCC_ClockConfig+0x154>)
 8001b3e:	f241 3788 	movw	r7, #5000	; 0x1388
 8001b42:	68b3      	ldr	r3, [r6, #8]
 8001b44:	f003 030c 	and.w	r3, r3, #12
 8001b48:	6862      	ldr	r2, [r4, #4]
 8001b4a:	ebb3 0f82 	cmp.w	r3, r2, lsl #2
 8001b4e:	d015      	beq.n	8001b7c <HAL_RCC_ClockConfig+0xd8>
 8001b50:	f7ff f9c2 	bl	8000ed8 <HAL_GetTick>
 8001b54:	eba0 0008 	sub.w	r0, r0, r8
 8001b58:	42b8      	cmp	r0, r7
 8001b5a:	d9f2      	bls.n	8001b42 <HAL_RCC_ClockConfig+0x9e>
 8001b5c:	2003      	movs	r0, #3
 8001b5e:	e7b6      	b.n	8001ace <HAL_RCC_ClockConfig+0x2a>
 8001b60:	4b25      	ldr	r3, [pc, #148]	; (8001bf8 <HAL_RCC_ClockConfig+0x154>)
 8001b62:	681b      	ldr	r3, [r3, #0]
 8001b64:	f413 3f00 	tst.w	r3, #131072	; 0x20000
 8001b68:	d1df      	bne.n	8001b2a <HAL_RCC_ClockConfig+0x86>
 8001b6a:	2001      	movs	r0, #1
 8001b6c:	e7af      	b.n	8001ace <HAL_RCC_ClockConfig+0x2a>
 8001b6e:	4b22      	ldr	r3, [pc, #136]	; (8001bf8 <HAL_RCC_ClockConfig+0x154>)
 8001b70:	681b      	ldr	r3, [r3, #0]
 8001b72:	f013 7f00 	tst.w	r3, #33554432	; 0x2000000
 8001b76:	d1d8      	bne.n	8001b2a <HAL_RCC_ClockConfig+0x86>
 8001b78:	2001      	movs	r0, #1
 8001b7a:	e7a8      	b.n	8001ace <HAL_RCC_ClockConfig+0x2a>
 8001b7c:	4b1d      	ldr	r3, [pc, #116]	; (8001bf4 <HAL_RCC_ClockConfig+0x150>)
 8001b7e:	681b      	ldr	r3, [r3, #0]
 8001b80:	f003 030f 	and.w	r3, r3, #15
 8001b84:	42ab      	cmp	r3, r5
 8001b86:	d909      	bls.n	8001b9c <HAL_RCC_ClockConfig+0xf8>
 8001b88:	b2ea      	uxtb	r2, r5
 8001b8a:	4b1a      	ldr	r3, [pc, #104]	; (8001bf4 <HAL_RCC_ClockConfig+0x150>)
 8001b8c:	701a      	strb	r2, [r3, #0]
 8001b8e:	681b      	ldr	r3, [r3, #0]
 8001b90:	f003 030f 	and.w	r3, r3, #15
 8001b94:	42ab      	cmp	r3, r5
 8001b96:	d001      	beq.n	8001b9c <HAL_RCC_ClockConfig+0xf8>
 8001b98:	2001      	movs	r0, #1
 8001b9a:	e798      	b.n	8001ace <HAL_RCC_ClockConfig+0x2a>
 8001b9c:	6823      	ldr	r3, [r4, #0]
 8001b9e:	f013 0f04 	tst.w	r3, #4
 8001ba2:	d006      	beq.n	8001bb2 <HAL_RCC_ClockConfig+0x10e>
 8001ba4:	4a14      	ldr	r2, [pc, #80]	; (8001bf8 <HAL_RCC_ClockConfig+0x154>)
 8001ba6:	6893      	ldr	r3, [r2, #8]
 8001ba8:	f423 53e0 	bic.w	r3, r3, #7168	; 0x1c00
 8001bac:	68e1      	ldr	r1, [r4, #12]
 8001bae:	430b      	orrs	r3, r1
 8001bb0:	6093      	str	r3, [r2, #8]
 8001bb2:	6823      	ldr	r3, [r4, #0]
 8001bb4:	f013 0f08 	tst.w	r3, #8
 8001bb8:	d007      	beq.n	8001bca <HAL_RCC_ClockConfig+0x126>
 8001bba:	4a0f      	ldr	r2, [pc, #60]	; (8001bf8 <HAL_RCC_ClockConfig+0x154>)
 8001bbc:	6893      	ldr	r3, [r2, #8]
 8001bbe:	6921      	ldr	r1, [r4, #16]
 8001bc0:	f423 4360 	bic.w	r3, r3, #57344	; 0xe000
 8001bc4:	ea43 03c1 	orr.w	r3, r3, r1, lsl #3
 8001bc8:	6093      	str	r3, [r2, #8]
 8001bca:	f7ff feff 	bl	80019cc <HAL_RCC_GetSysClockFreq>
 8001bce:	4b0a      	ldr	r3, [pc, #40]	; (8001bf8 <HAL_RCC_ClockConfig+0x154>)
 8001bd0:	689b      	ldr	r3, [r3, #8]
 8001bd2:	f3c3 1303 	ubfx	r3, r3, #4, #4
 8001bd6:	4a09      	ldr	r2, [pc, #36]	; (8001bfc <HAL_RCC_ClockConfig+0x158>)
 8001bd8:	5cd3      	ldrb	r3, [r2, r3]
 8001bda:	40d8      	lsrs	r0, r3
 8001bdc:	4b08      	ldr	r3, [pc, #32]	; (8001c00 <HAL_RCC_ClockConfig+0x15c>)
 8001bde:	6018      	str	r0, [r3, #0]
 8001be0:	4b08      	ldr	r3, [pc, #32]	; (8001c04 <HAL_RCC_ClockConfig+0x160>)
 8001be2:	6818      	ldr	r0, [r3, #0]
 8001be4:	f7ff f92c 	bl	8000e40 <HAL_InitTick>
 8001be8:	2000      	movs	r0, #0
 8001bea:	e770      	b.n	8001ace <HAL_RCC_ClockConfig+0x2a>
 8001bec:	2001      	movs	r0, #1
 8001bee:	4770      	bx	lr
 8001bf0:	2001      	movs	r0, #1
 8001bf2:	e76c      	b.n	8001ace <HAL_RCC_ClockConfig+0x2a>
 8001bf4:	40023c00 	.word	0x40023c00
 8001bf8:	40023800 	.word	0x40023800
 8001bfc:	080021f0 	.word	0x080021f0
 8001c00:	20005498 	.word	0x20005498
 8001c04:	200054a0 	.word	0x200054a0

08001c08 <SPI_WaitFlagStateUntilTimeout>:
 8001c08:	b5f8      	push	{r3, r4, r5, r6, r7, lr}
 8001c0a:	4607      	mov	r7, r0
 8001c0c:	460e      	mov	r6, r1
 8001c0e:	4615      	mov	r5, r2
 8001c10:	461c      	mov	r4, r3
 8001c12:	683a      	ldr	r2, [r7, #0]
 8001c14:	6893      	ldr	r3, [r2, #8]
 8001c16:	ea36 0303 	bics.w	r3, r6, r3
 8001c1a:	bf0c      	ite	eq
 8001c1c:	2301      	moveq	r3, #1
 8001c1e:	2300      	movne	r3, #0
 8001c20:	42ab      	cmp	r3, r5
 8001c22:	d037      	beq.n	8001c94 <SPI_WaitFlagStateUntilTimeout+0x8c>
 8001c24:	f1b4 3fff 	cmp.w	r4, #4294967295	; 0xffffffff
 8001c28:	d0f4      	beq.n	8001c14 <SPI_WaitFlagStateUntilTimeout+0xc>
 8001c2a:	f7ff f955 	bl	8000ed8 <HAL_GetTick>
 8001c2e:	9b06      	ldr	r3, [sp, #24]
 8001c30:	1ac0      	subs	r0, r0, r3
 8001c32:	42a0      	cmp	r0, r4
 8001c34:	d201      	bcs.n	8001c3a <SPI_WaitFlagStateUntilTimeout+0x32>
 8001c36:	2c00      	cmp	r4, #0
 8001c38:	d1eb      	bne.n	8001c12 <SPI_WaitFlagStateUntilTimeout+0xa>
 8001c3a:	683a      	ldr	r2, [r7, #0]
 8001c3c:	6853      	ldr	r3, [r2, #4]
 8001c3e:	f023 03e0 	bic.w	r3, r3, #224	; 0xe0
 8001c42:	6053      	str	r3, [r2, #4]
 8001c44:	687b      	ldr	r3, [r7, #4]
 8001c46:	f5b3 7f82 	cmp.w	r3, #260	; 0x104
 8001c4a:	d00b      	beq.n	8001c64 <SPI_WaitFlagStateUntilTimeout+0x5c>
 8001c4c:	6abb      	ldr	r3, [r7, #40]	; 0x28
 8001c4e:	f5b3 5f00 	cmp.w	r3, #8192	; 0x2000
 8001c52:	d014      	beq.n	8001c7e <SPI_WaitFlagStateUntilTimeout+0x76>
 8001c54:	2301      	movs	r3, #1
 8001c56:	f887 3051 	strb.w	r3, [r7, #81]	; 0x51
 8001c5a:	2300      	movs	r3, #0
 8001c5c:	f887 3050 	strb.w	r3, [r7, #80]	; 0x50
 8001c60:	2003      	movs	r0, #3
 8001c62:	e018      	b.n	8001c96 <SPI_WaitFlagStateUntilTimeout+0x8e>
 8001c64:	68bb      	ldr	r3, [r7, #8]
 8001c66:	f5b3 4f00 	cmp.w	r3, #32768	; 0x8000
 8001c6a:	d002      	beq.n	8001c72 <SPI_WaitFlagStateUntilTimeout+0x6a>
 8001c6c:	f5b3 6f80 	cmp.w	r3, #1024	; 0x400
 8001c70:	d1ec      	bne.n	8001c4c <SPI_WaitFlagStateUntilTimeout+0x44>
 8001c72:	683a      	ldr	r2, [r7, #0]
 8001c74:	6813      	ldr	r3, [r2, #0]
 8001c76:	f023 0340 	bic.w	r3, r3, #64	; 0x40
 8001c7a:	6013      	str	r3, [r2, #0]
 8001c7c:	e7e6      	b.n	8001c4c <SPI_WaitFlagStateUntilTimeout+0x44>
 8001c7e:	683a      	ldr	r2, [r7, #0]
 8001c80:	6813      	ldr	r3, [r2, #0]
 8001c82:	f423 5300 	bic.w	r3, r3, #8192	; 0x2000
 8001c86:	6013      	str	r3, [r2, #0]
 8001c88:	683a      	ldr	r2, [r7, #0]
 8001c8a:	6813      	ldr	r3, [r2, #0]
 8001c8c:	f443 5300 	orr.w	r3, r3, #8192	; 0x2000
 8001c90:	6013      	str	r3, [r2, #0]
 8001c92:	e7df      	b.n	8001c54 <SPI_WaitFlagStateUntilTimeout+0x4c>
 8001c94:	2000      	movs	r0, #0
 8001c96:	bdf8      	pop	{r3, r4, r5, r6, r7, pc}

08001c98 <SPI_EndRxTxTransaction>:
 8001c98:	b530      	push	{r4, r5, lr}
 8001c9a:	b085      	sub	sp, #20
 8001c9c:	4c16      	ldr	r4, [pc, #88]	; (8001cf8 <SPI_EndRxTxTransaction+0x60>)
 8001c9e:	6824      	ldr	r4, [r4, #0]
 8001ca0:	4d16      	ldr	r5, [pc, #88]	; (8001cfc <SPI_EndRxTxTransaction+0x64>)
 8001ca2:	fba5 3404 	umull	r3, r4, r5, r4
 8001ca6:	0d64      	lsrs	r4, r4, #21
 8001ca8:	f44f 757a 	mov.w	r5, #1000	; 0x3e8
 8001cac:	fb05 f404 	mul.w	r4, r5, r4
 8001cb0:	9403      	str	r4, [sp, #12]
 8001cb2:	6844      	ldr	r4, [r0, #4]
 8001cb4:	f5b4 7f82 	cmp.w	r4, #260	; 0x104
 8001cb8:	d00b      	beq.n	8001cd2 <SPI_EndRxTxTransaction+0x3a>
 8001cba:	9b03      	ldr	r3, [sp, #12]
 8001cbc:	b1c3      	cbz	r3, 8001cf0 <SPI_EndRxTxTransaction+0x58>
 8001cbe:	9b03      	ldr	r3, [sp, #12]
 8001cc0:	3b01      	subs	r3, #1
 8001cc2:	9303      	str	r3, [sp, #12]
 8001cc4:	6803      	ldr	r3, [r0, #0]
 8001cc6:	689b      	ldr	r3, [r3, #8]
 8001cc8:	f013 0f80 	tst.w	r3, #128	; 0x80
 8001ccc:	d1f5      	bne.n	8001cba <SPI_EndRxTxTransaction+0x22>
 8001cce:	2300      	movs	r3, #0
 8001cd0:	e00f      	b.n	8001cf2 <SPI_EndRxTxTransaction+0x5a>
 8001cd2:	460b      	mov	r3, r1
 8001cd4:	4604      	mov	r4, r0
 8001cd6:	9200      	str	r2, [sp, #0]
 8001cd8:	2200      	movs	r2, #0
 8001cda:	2180      	movs	r1, #128	; 0x80
 8001cdc:	f7ff ff94 	bl	8001c08 <SPI_WaitFlagStateUntilTimeout>
 8001ce0:	4603      	mov	r3, r0
 8001ce2:	b130      	cbz	r0, 8001cf2 <SPI_EndRxTxTransaction+0x5a>
 8001ce4:	6d63      	ldr	r3, [r4, #84]	; 0x54
 8001ce6:	f043 0320 	orr.w	r3, r3, #32
 8001cea:	6563      	str	r3, [r4, #84]	; 0x54
 8001cec:	2303      	movs	r3, #3
 8001cee:	e000      	b.n	8001cf2 <SPI_EndRxTxTransaction+0x5a>
 8001cf0:	2300      	movs	r3, #0
 8001cf2:	4618      	mov	r0, r3
 8001cf4:	b005      	add	sp, #20
 8001cf6:	bd30      	pop	{r4, r5, pc}
 8001cf8:	20005498 	.word	0x20005498
 8001cfc:	165e9f81 	.word	0x165e9f81

08001d00 <SPI_EndRxTransaction>:
 8001d00:	b510      	push	{r4, lr}
 8001d02:	b082      	sub	sp, #8
 8001d04:	4604      	mov	r4, r0
 8001d06:	6840      	ldr	r0, [r0, #4]
 8001d08:	f5b0 7f82 	cmp.w	r0, #260	; 0x104
 8001d0c:	d00c      	beq.n	8001d28 <SPI_EndRxTransaction+0x28>
 8001d0e:	9200      	str	r2, [sp, #0]
 8001d10:	460b      	mov	r3, r1
 8001d12:	2200      	movs	r2, #0
 8001d14:	2101      	movs	r1, #1
 8001d16:	4620      	mov	r0, r4
 8001d18:	f7ff ff76 	bl	8001c08 <SPI_WaitFlagStateUntilTimeout>
 8001d1c:	4603      	mov	r3, r0
 8001d1e:	2800      	cmp	r0, #0
 8001d20:	d136      	bne.n	8001d90 <SPI_EndRxTransaction+0x90>
 8001d22:	4618      	mov	r0, r3
 8001d24:	b002      	add	sp, #8
 8001d26:	bd10      	pop	{r4, pc}
 8001d28:	68a3      	ldr	r3, [r4, #8]
 8001d2a:	f5b3 4f00 	cmp.w	r3, #32768	; 0x8000
 8001d2e:	d002      	beq.n	8001d36 <SPI_EndRxTransaction+0x36>
 8001d30:	f5b3 6f80 	cmp.w	r3, #1024	; 0x400
 8001d34:	d10c      	bne.n	8001d50 <SPI_EndRxTransaction+0x50>
 8001d36:	6820      	ldr	r0, [r4, #0]
 8001d38:	6803      	ldr	r3, [r0, #0]
 8001d3a:	f023 0340 	bic.w	r3, r3, #64	; 0x40
 8001d3e:	6003      	str	r3, [r0, #0]
 8001d40:	6863      	ldr	r3, [r4, #4]
 8001d42:	f5b3 7f82 	cmp.w	r3, #260	; 0x104
 8001d46:	d1e2      	bne.n	8001d0e <SPI_EndRxTransaction+0xe>
 8001d48:	68a3      	ldr	r3, [r4, #8]
 8001d4a:	f5b3 6f80 	cmp.w	r3, #1024	; 0x400
 8001d4e:	d00f      	beq.n	8001d70 <SPI_EndRxTransaction+0x70>
 8001d50:	9200      	str	r2, [sp, #0]
 8001d52:	460b      	mov	r3, r1
 8001d54:	2200      	movs	r2, #0
 8001d56:	2180      	movs	r1, #128	; 0x80
 8001d58:	4620      	mov	r0, r4
 8001d5a:	f7ff ff55 	bl	8001c08 <SPI_WaitFlagStateUntilTimeout>
 8001d5e:	4603      	mov	r3, r0
 8001d60:	2800      	cmp	r0, #0
 8001d62:	d0de      	beq.n	8001d22 <SPI_EndRxTransaction+0x22>
 8001d64:	6d63      	ldr	r3, [r4, #84]	; 0x54
 8001d66:	f043 0320 	orr.w	r3, r3, #32
 8001d6a:	6563      	str	r3, [r4, #84]	; 0x54
 8001d6c:	2303      	movs	r3, #3
 8001d6e:	e7d8      	b.n	8001d22 <SPI_EndRxTransaction+0x22>
 8001d70:	9200      	str	r2, [sp, #0]
 8001d72:	460b      	mov	r3, r1
 8001d74:	2200      	movs	r2, #0
 8001d76:	2101      	movs	r1, #1
 8001d78:	4620      	mov	r0, r4
 8001d7a:	f7ff ff45 	bl	8001c08 <SPI_WaitFlagStateUntilTimeout>
 8001d7e:	4603      	mov	r3, r0
 8001d80:	2800      	cmp	r0, #0
 8001d82:	d0ce      	beq.n	8001d22 <SPI_EndRxTransaction+0x22>
 8001d84:	6d63      	ldr	r3, [r4, #84]	; 0x54
 8001d86:	f043 0320 	orr.w	r3, r3, #32
 8001d8a:	6563      	str	r3, [r4, #84]	; 0x54
 8001d8c:	2303      	movs	r3, #3
 8001d8e:	e7c8      	b.n	8001d22 <SPI_EndRxTransaction+0x22>
 8001d90:	6d63      	ldr	r3, [r4, #84]	; 0x54
 8001d92:	f043 0320 	orr.w	r3, r3, #32
 8001d96:	6563      	str	r3, [r4, #84]	; 0x54
 8001d98:	2303      	movs	r3, #3
 8001d9a:	e7c2      	b.n	8001d22 <SPI_EndRxTransaction+0x22>

08001d9c <HAL_SPI_Init>:
 8001d9c:	2800      	cmp	r0, #0
 8001d9e:	d03b      	beq.n	8001e18 <HAL_SPI_Init+0x7c>
 8001da0:	b510      	push	{r4, lr}
 8001da2:	4604      	mov	r4, r0
 8001da4:	2300      	movs	r3, #0
 8001da6:	6283      	str	r3, [r0, #40]	; 0x28
 8001da8:	f890 3051 	ldrb.w	r3, [r0, #81]	; 0x51
 8001dac:	2b00      	cmp	r3, #0
 8001dae:	d02e      	beq.n	8001e0e <HAL_SPI_Init+0x72>
 8001db0:	2302      	movs	r3, #2
 8001db2:	f884 3051 	strb.w	r3, [r4, #81]	; 0x51
 8001db6:	6822      	ldr	r2, [r4, #0]
 8001db8:	6813      	ldr	r3, [r2, #0]
 8001dba:	f023 0340 	bic.w	r3, r3, #64	; 0x40
 8001dbe:	6013      	str	r3, [r2, #0]
 8001dc0:	6822      	ldr	r2, [r4, #0]
 8001dc2:	6863      	ldr	r3, [r4, #4]
 8001dc4:	68a1      	ldr	r1, [r4, #8]
 8001dc6:	430b      	orrs	r3, r1
 8001dc8:	68e1      	ldr	r1, [r4, #12]
 8001dca:	430b      	orrs	r3, r1
 8001dcc:	6921      	ldr	r1, [r4, #16]
 8001dce:	430b      	orrs	r3, r1
 8001dd0:	6961      	ldr	r1, [r4, #20]
 8001dd2:	430b      	orrs	r3, r1
 8001dd4:	69e1      	ldr	r1, [r4, #28]
 8001dd6:	430b      	orrs	r3, r1
 8001dd8:	6a21      	ldr	r1, [r4, #32]
 8001dda:	430b      	orrs	r3, r1
 8001ddc:	6aa1      	ldr	r1, [r4, #40]	; 0x28
 8001dde:	430b      	orrs	r3, r1
 8001de0:	69a1      	ldr	r1, [r4, #24]
 8001de2:	f401 7100 	and.w	r1, r1, #512	; 0x200
 8001de6:	430b      	orrs	r3, r1
 8001de8:	6013      	str	r3, [r2, #0]
 8001dea:	6822      	ldr	r2, [r4, #0]
 8001dec:	8b63      	ldrh	r3, [r4, #26]
 8001dee:	f003 0304 	and.w	r3, r3, #4
 8001df2:	6a61      	ldr	r1, [r4, #36]	; 0x24
 8001df4:	430b      	orrs	r3, r1
 8001df6:	6053      	str	r3, [r2, #4]
 8001df8:	6822      	ldr	r2, [r4, #0]
 8001dfa:	69d3      	ldr	r3, [r2, #28]
 8001dfc:	f423 6300 	bic.w	r3, r3, #2048	; 0x800
 8001e00:	61d3      	str	r3, [r2, #28]
 8001e02:	2000      	movs	r0, #0
 8001e04:	6560      	str	r0, [r4, #84]	; 0x54
 8001e06:	2301      	movs	r3, #1
 8001e08:	f884 3051 	strb.w	r3, [r4, #81]	; 0x51
 8001e0c:	bd10      	pop	{r4, pc}
 8001e0e:	f880 3050 	strb.w	r3, [r0, #80]	; 0x50
 8001e12:	f7fe ff29 	bl	8000c68 <HAL_SPI_MspInit>
 8001e16:	e7cb      	b.n	8001db0 <HAL_SPI_Init+0x14>
 8001e18:	2001      	movs	r0, #1
 8001e1a:	4770      	bx	lr

08001e1c <HAL_SPI_TransmitReceive_DMA>:
 8001e1c:	b538      	push	{r3, r4, r5, lr}
 8001e1e:	f890 4050 	ldrb.w	r4, [r0, #80]	; 0x50
 8001e22:	2c01      	cmp	r4, #1
 8001e24:	f000 8095 	beq.w	8001f52 <HAL_SPI_TransmitReceive_DMA+0x136>
 8001e28:	4604      	mov	r4, r0
 8001e2a:	2001      	movs	r0, #1
 8001e2c:	f884 0050 	strb.w	r0, [r4, #80]	; 0x50
 8001e30:	f894 0051 	ldrb.w	r0, [r4, #81]	; 0x51
 8001e34:	b2c0      	uxtb	r0, r0
 8001e36:	2801      	cmp	r0, #1
 8001e38:	d010      	beq.n	8001e5c <HAL_SPI_TransmitReceive_DMA+0x40>
 8001e3a:	6865      	ldr	r5, [r4, #4]
 8001e3c:	f5b5 7f82 	cmp.w	r5, #260	; 0x104
 8001e40:	d005      	beq.n	8001e4e <HAL_SPI_TransmitReceive_DMA+0x32>
 8001e42:	2302      	movs	r3, #2
 8001e44:	2200      	movs	r2, #0
 8001e46:	f884 2050 	strb.w	r2, [r4, #80]	; 0x50
 8001e4a:	4618      	mov	r0, r3
 8001e4c:	bd38      	pop	{r3, r4, r5, pc}
 8001e4e:	68a5      	ldr	r5, [r4, #8]
 8001e50:	2d00      	cmp	r5, #0
 8001e52:	d176      	bne.n	8001f42 <HAL_SPI_TransmitReceive_DMA+0x126>
 8001e54:	2804      	cmp	r0, #4
 8001e56:	d001      	beq.n	8001e5c <HAL_SPI_TransmitReceive_DMA+0x40>
 8001e58:	2302      	movs	r3, #2
 8001e5a:	e7f3      	b.n	8001e44 <HAL_SPI_TransmitReceive_DMA+0x28>
 8001e5c:	2900      	cmp	r1, #0
 8001e5e:	d072      	beq.n	8001f46 <HAL_SPI_TransmitReceive_DMA+0x12a>
 8001e60:	2a00      	cmp	r2, #0
 8001e62:	d072      	beq.n	8001f4a <HAL_SPI_TransmitReceive_DMA+0x12e>
 8001e64:	2b00      	cmp	r3, #0
 8001e66:	d072      	beq.n	8001f4e <HAL_SPI_TransmitReceive_DMA+0x132>
 8001e68:	f894 0051 	ldrb.w	r0, [r4, #81]	; 0x51
 8001e6c:	b2c0      	uxtb	r0, r0
 8001e6e:	2804      	cmp	r0, #4
 8001e70:	bf1c      	itt	ne
 8001e72:	2005      	movne	r0, #5
 8001e74:	f884 0051 	strbne.w	r0, [r4, #81]	; 0x51
 8001e78:	2000      	movs	r0, #0
 8001e7a:	6560      	str	r0, [r4, #84]	; 0x54
 8001e7c:	6321      	str	r1, [r4, #48]	; 0x30
 8001e7e:	86a3      	strh	r3, [r4, #52]	; 0x34
 8001e80:	86e3      	strh	r3, [r4, #54]	; 0x36
 8001e82:	63a2      	str	r2, [r4, #56]	; 0x38
 8001e84:	87a3      	strh	r3, [r4, #60]	; 0x3c
 8001e86:	87e3      	strh	r3, [r4, #62]	; 0x3e
 8001e88:	6420      	str	r0, [r4, #64]	; 0x40
 8001e8a:	6460      	str	r0, [r4, #68]	; 0x44
 8001e8c:	f894 3051 	ldrb.w	r3, [r4, #81]	; 0x51
 8001e90:	b2db      	uxtb	r3, r3
 8001e92:	2b04      	cmp	r3, #4
 8001e94:	d01b      	beq.n	8001ece <HAL_SPI_TransmitReceive_DMA+0xb2>
 8001e96:	6ce3      	ldr	r3, [r4, #76]	; 0x4c
 8001e98:	4a2f      	ldr	r2, [pc, #188]	; (8001f58 <HAL_SPI_TransmitReceive_DMA+0x13c>)
 8001e9a:	641a      	str	r2, [r3, #64]	; 0x40
 8001e9c:	6ce3      	ldr	r3, [r4, #76]	; 0x4c
 8001e9e:	4a2f      	ldr	r2, [pc, #188]	; (8001f5c <HAL_SPI_TransmitReceive_DMA+0x140>)
 8001ea0:	63da      	str	r2, [r3, #60]	; 0x3c
 8001ea2:	6ce3      	ldr	r3, [r4, #76]	; 0x4c
 8001ea4:	4a2e      	ldr	r2, [pc, #184]	; (8001f60 <HAL_SPI_TransmitReceive_DMA+0x144>)
 8001ea6:	64da      	str	r2, [r3, #76]	; 0x4c
 8001ea8:	6ce3      	ldr	r3, [r4, #76]	; 0x4c
 8001eaa:	2200      	movs	r2, #0
 8001eac:	651a      	str	r2, [r3, #80]	; 0x50
 8001eae:	8fe3      	ldrh	r3, [r4, #62]	; 0x3e
 8001eb0:	6821      	ldr	r1, [r4, #0]
 8001eb2:	6ba2      	ldr	r2, [r4, #56]	; 0x38
 8001eb4:	310c      	adds	r1, #12
 8001eb6:	6ce0      	ldr	r0, [r4, #76]	; 0x4c
 8001eb8:	f7ff f93c 	bl	8001134 <HAL_DMA_Start_IT>
 8001ebc:	b170      	cbz	r0, 8001edc <HAL_SPI_TransmitReceive_DMA+0xc0>
 8001ebe:	6d63      	ldr	r3, [r4, #84]	; 0x54
 8001ec0:	f043 0310 	orr.w	r3, r3, #16
 8001ec4:	6563      	str	r3, [r4, #84]	; 0x54
 8001ec6:	2301      	movs	r3, #1
 8001ec8:	f884 3051 	strb.w	r3, [r4, #81]	; 0x51
 8001ecc:	e7ba      	b.n	8001e44 <HAL_SPI_TransmitReceive_DMA+0x28>
 8001ece:	6ce3      	ldr	r3, [r4, #76]	; 0x4c
 8001ed0:	4a24      	ldr	r2, [pc, #144]	; (8001f64 <HAL_SPI_TransmitReceive_DMA+0x148>)
 8001ed2:	641a      	str	r2, [r3, #64]	; 0x40
 8001ed4:	6ce3      	ldr	r3, [r4, #76]	; 0x4c
 8001ed6:	4a24      	ldr	r2, [pc, #144]	; (8001f68 <HAL_SPI_TransmitReceive_DMA+0x14c>)
 8001ed8:	63da      	str	r2, [r3, #60]	; 0x3c
 8001eda:	e7e2      	b.n	8001ea2 <HAL_SPI_TransmitReceive_DMA+0x86>
 8001edc:	6822      	ldr	r2, [r4, #0]
 8001ede:	6853      	ldr	r3, [r2, #4]
 8001ee0:	f043 0301 	orr.w	r3, r3, #1
 8001ee4:	6053      	str	r3, [r2, #4]
 8001ee6:	6ca2      	ldr	r2, [r4, #72]	; 0x48
 8001ee8:	2300      	movs	r3, #0
 8001eea:	6413      	str	r3, [r2, #64]	; 0x40
 8001eec:	6ca2      	ldr	r2, [r4, #72]	; 0x48
 8001eee:	63d3      	str	r3, [r2, #60]	; 0x3c
 8001ef0:	6ca2      	ldr	r2, [r4, #72]	; 0x48
 8001ef2:	64d3      	str	r3, [r2, #76]	; 0x4c
 8001ef4:	6ca2      	ldr	r2, [r4, #72]	; 0x48
 8001ef6:	6513      	str	r3, [r2, #80]	; 0x50
 8001ef8:	8ee3      	ldrh	r3, [r4, #54]	; 0x36
 8001efa:	6822      	ldr	r2, [r4, #0]
 8001efc:	320c      	adds	r2, #12
 8001efe:	6b21      	ldr	r1, [r4, #48]	; 0x30
 8001f00:	6ca0      	ldr	r0, [r4, #72]	; 0x48
 8001f02:	f7ff f917 	bl	8001134 <HAL_DMA_Start_IT>
 8001f06:	4603      	mov	r3, r0
 8001f08:	b138      	cbz	r0, 8001f1a <HAL_SPI_TransmitReceive_DMA+0xfe>
 8001f0a:	6d63      	ldr	r3, [r4, #84]	; 0x54
 8001f0c:	f043 0310 	orr.w	r3, r3, #16
 8001f10:	6563      	str	r3, [r4, #84]	; 0x54
 8001f12:	2301      	movs	r3, #1
 8001f14:	f884 3051 	strb.w	r3, [r4, #81]	; 0x51
 8001f18:	e794      	b.n	8001e44 <HAL_SPI_TransmitReceive_DMA+0x28>
 8001f1a:	6822      	ldr	r2, [r4, #0]
 8001f1c:	6811      	ldr	r1, [r2, #0]
 8001f1e:	f011 0f40 	tst.w	r1, #64	; 0x40
 8001f22:	d103      	bne.n	8001f2c <HAL_SPI_TransmitReceive_DMA+0x110>
 8001f24:	6811      	ldr	r1, [r2, #0]
 8001f26:	f041 0140 	orr.w	r1, r1, #64	; 0x40
 8001f2a:	6011      	str	r1, [r2, #0]
 8001f2c:	6821      	ldr	r1, [r4, #0]
 8001f2e:	684a      	ldr	r2, [r1, #4]
 8001f30:	f042 0220 	orr.w	r2, r2, #32
 8001f34:	604a      	str	r2, [r1, #4]
 8001f36:	6821      	ldr	r1, [r4, #0]
 8001f38:	684a      	ldr	r2, [r1, #4]
 8001f3a:	f042 0202 	orr.w	r2, r2, #2
 8001f3e:	604a      	str	r2, [r1, #4]
 8001f40:	e780      	b.n	8001e44 <HAL_SPI_TransmitReceive_DMA+0x28>
 8001f42:	2302      	movs	r3, #2
 8001f44:	e77e      	b.n	8001e44 <HAL_SPI_TransmitReceive_DMA+0x28>
 8001f46:	2301      	movs	r3, #1
 8001f48:	e77c      	b.n	8001e44 <HAL_SPI_TransmitReceive_DMA+0x28>
 8001f4a:	2301      	movs	r3, #1
 8001f4c:	e77a      	b.n	8001e44 <HAL_SPI_TransmitReceive_DMA+0x28>
 8001f4e:	2301      	movs	r3, #1
 8001f50:	e778      	b.n	8001e44 <HAL_SPI_TransmitReceive_DMA+0x28>
 8001f52:	2302      	movs	r3, #2
 8001f54:	e779      	b.n	8001e4a <HAL_SPI_TransmitReceive_DMA+0x2e>
 8001f56:	bf00      	nop
 8001f58:	08002071 	.word	0x08002071
 8001f5c:	0800210d 	.word	0x0800210d
 8001f60:	0800207d 	.word	0x0800207d
 8001f64:	08002065 	.word	0x08002065
 8001f68:	0800209f 	.word	0x0800209f

08001f6c <HAL_SPI_Receive_DMA>:
 8001f6c:	b538      	push	{r3, r4, r5, lr}
 8001f6e:	4604      	mov	r4, r0
 8001f70:	6885      	ldr	r5, [r0, #8]
 8001f72:	b91d      	cbnz	r5, 8001f7c <HAL_SPI_Receive_DMA+0x10>
 8001f74:	6843      	ldr	r3, [r0, #4]
 8001f76:	f5b3 7f82 	cmp.w	r3, #260	; 0x104
 8001f7a:	d011      	beq.n	8001fa0 <HAL_SPI_Receive_DMA+0x34>
 8001f7c:	f894 0050 	ldrb.w	r0, [r4, #80]	; 0x50
 8001f80:	2801      	cmp	r0, #1
 8001f82:	d064      	beq.n	800204e <HAL_SPI_Receive_DMA+0xe2>
 8001f84:	2001      	movs	r0, #1
 8001f86:	f884 0050 	strb.w	r0, [r4, #80]	; 0x50
 8001f8a:	f894 0051 	ldrb.w	r0, [r4, #81]	; 0x51
 8001f8e:	b2c0      	uxtb	r0, r0
 8001f90:	2801      	cmp	r0, #1
 8001f92:	d00e      	beq.n	8001fb2 <HAL_SPI_Receive_DMA+0x46>
 8001f94:	2302      	movs	r3, #2
 8001f96:	2200      	movs	r2, #0
 8001f98:	f884 2050 	strb.w	r2, [r4, #80]	; 0x50
 8001f9c:	4618      	mov	r0, r3
 8001f9e:	bd38      	pop	{r3, r4, r5, pc}
 8001fa0:	2304      	movs	r3, #4
 8001fa2:	f880 3051 	strb.w	r3, [r0, #81]	; 0x51
 8001fa6:	4613      	mov	r3, r2
 8001fa8:	460a      	mov	r2, r1
 8001faa:	f7ff ff37 	bl	8001e1c <HAL_SPI_TransmitReceive_DMA>
 8001fae:	4603      	mov	r3, r0
 8001fb0:	e7f4      	b.n	8001f9c <HAL_SPI_Receive_DMA+0x30>
 8001fb2:	2900      	cmp	r1, #0
 8001fb4:	d047      	beq.n	8002046 <HAL_SPI_Receive_DMA+0xda>
 8001fb6:	2a00      	cmp	r2, #0
 8001fb8:	d047      	beq.n	800204a <HAL_SPI_Receive_DMA+0xde>
 8001fba:	2304      	movs	r3, #4
 8001fbc:	f884 3051 	strb.w	r3, [r4, #81]	; 0x51
 8001fc0:	2300      	movs	r3, #0
 8001fc2:	6563      	str	r3, [r4, #84]	; 0x54
 8001fc4:	63a1      	str	r1, [r4, #56]	; 0x38
 8001fc6:	87a2      	strh	r2, [r4, #60]	; 0x3c
 8001fc8:	87e2      	strh	r2, [r4, #62]	; 0x3e
 8001fca:	6423      	str	r3, [r4, #64]	; 0x40
 8001fcc:	6463      	str	r3, [r4, #68]	; 0x44
 8001fce:	86a3      	strh	r3, [r4, #52]	; 0x34
 8001fd0:	86e3      	strh	r3, [r4, #54]	; 0x36
 8001fd2:	f5b5 4f00 	cmp.w	r5, #32768	; 0x8000
 8001fd6:	d01c      	beq.n	8002012 <HAL_SPI_Receive_DMA+0xa6>
 8001fd8:	6ce3      	ldr	r3, [r4, #76]	; 0x4c
 8001fda:	4a1e      	ldr	r2, [pc, #120]	; (8002054 <HAL_SPI_Receive_DMA+0xe8>)
 8001fdc:	641a      	str	r2, [r3, #64]	; 0x40
 8001fde:	6ce3      	ldr	r3, [r4, #76]	; 0x4c
 8001fe0:	4a1d      	ldr	r2, [pc, #116]	; (8002058 <HAL_SPI_Receive_DMA+0xec>)
 8001fe2:	63da      	str	r2, [r3, #60]	; 0x3c
 8001fe4:	6ce3      	ldr	r3, [r4, #76]	; 0x4c
 8001fe6:	4a1d      	ldr	r2, [pc, #116]	; (800205c <HAL_SPI_Receive_DMA+0xf0>)
 8001fe8:	64da      	str	r2, [r3, #76]	; 0x4c
 8001fea:	6ce3      	ldr	r3, [r4, #76]	; 0x4c
 8001fec:	2200      	movs	r2, #0
 8001fee:	651a      	str	r2, [r3, #80]	; 0x50
 8001ff0:	8fe3      	ldrh	r3, [r4, #62]	; 0x3e
 8001ff2:	6821      	ldr	r1, [r4, #0]
 8001ff4:	6ba2      	ldr	r2, [r4, #56]	; 0x38
 8001ff6:	310c      	adds	r1, #12
 8001ff8:	6ce0      	ldr	r0, [r4, #76]	; 0x4c
 8001ffa:	f7ff f89b 	bl	8001134 <HAL_DMA_Start_IT>
 8001ffe:	4603      	mov	r3, r0
 8002000:	b168      	cbz	r0, 800201e <HAL_SPI_Receive_DMA+0xb2>
 8002002:	6d63      	ldr	r3, [r4, #84]	; 0x54
 8002004:	f043 0310 	orr.w	r3, r3, #16
 8002008:	6563      	str	r3, [r4, #84]	; 0x54
 800200a:	2301      	movs	r3, #1
 800200c:	f884 3051 	strb.w	r3, [r4, #81]	; 0x51
 8002010:	e7c1      	b.n	8001f96 <HAL_SPI_Receive_DMA+0x2a>
 8002012:	6822      	ldr	r2, [r4, #0]
 8002014:	6813      	ldr	r3, [r2, #0]
 8002016:	f423 4380 	bic.w	r3, r3, #16384	; 0x4000
 800201a:	6013      	str	r3, [r2, #0]
 800201c:	e7dc      	b.n	8001fd8 <HAL_SPI_Receive_DMA+0x6c>
 800201e:	6822      	ldr	r2, [r4, #0]
 8002020:	6811      	ldr	r1, [r2, #0]
 8002022:	f011 0f40 	tst.w	r1, #64	; 0x40
 8002026:	d103      	bne.n	8002030 <HAL_SPI_Receive_DMA+0xc4>
 8002028:	6811      	ldr	r1, [r2, #0]
 800202a:	f041 0140 	orr.w	r1, r1, #64	; 0x40
 800202e:	6011      	str	r1, [r2, #0]
 8002030:	6821      	ldr	r1, [r4, #0]
 8002032:	684a      	ldr	r2, [r1, #4]
 8002034:	f042 0220 	orr.w	r2, r2, #32
 8002038:	604a      	str	r2, [r1, #4]
 800203a:	6821      	ldr	r1, [r4, #0]
 800203c:	684a      	ldr	r2, [r1, #4]
 800203e:	f042 0201 	orr.w	r2, r2, #1
 8002042:	604a      	str	r2, [r1, #4]
 8002044:	e7a7      	b.n	8001f96 <HAL_SPI_Receive_DMA+0x2a>
 8002046:	2301      	movs	r3, #1
 8002048:	e7a5      	b.n	8001f96 <HAL_SPI_Receive_DMA+0x2a>
 800204a:	2301      	movs	r3, #1
 800204c:	e7a3      	b.n	8001f96 <HAL_SPI_Receive_DMA+0x2a>
 800204e:	2302      	movs	r3, #2
 8002050:	e7a4      	b.n	8001f9c <HAL_SPI_Receive_DMA+0x30>
 8002052:	bf00      	nop
 8002054:	08002065 	.word	0x08002065
 8002058:	0800209f 	.word	0x0800209f
 800205c:	0800207d 	.word	0x0800207d

08002060 <HAL_SPI_TxRxCpltCallback>:
 8002060:	4770      	bx	lr

08002062 <HAL_SPI_RxHalfCpltCallback>:
 8002062:	4770      	bx	lr

08002064 <SPI_DMAHalfReceiveCplt>:
 8002064:	b508      	push	{r3, lr}
 8002066:	6b80      	ldr	r0, [r0, #56]	; 0x38
 8002068:	f7ff fffb 	bl	8002062 <HAL_SPI_RxHalfCpltCallback>
 800206c:	bd08      	pop	{r3, pc}

0800206e <HAL_SPI_TxRxHalfCpltCallback>:
 800206e:	4770      	bx	lr

08002070 <SPI_DMAHalfTransmitReceiveCplt>:
 8002070:	b508      	push	{r3, lr}
 8002072:	6b80      	ldr	r0, [r0, #56]	; 0x38
 8002074:	f7ff fffb 	bl	800206e <HAL_SPI_TxRxHalfCpltCallback>
 8002078:	bd08      	pop	{r3, pc}

0800207a <HAL_SPI_ErrorCallback>:
 800207a:	4770      	bx	lr

0800207c <SPI_DMAError>:
 800207c:	b508      	push	{r3, lr}
 800207e:	6b80      	ldr	r0, [r0, #56]	; 0x38
 8002080:	6802      	ldr	r2, [r0, #0]
 8002082:	6853      	ldr	r3, [r2, #4]
 8002084:	f023 0303 	bic.w	r3, r3, #3
 8002088:	6053      	str	r3, [r2, #4]
 800208a:	6d43      	ldr	r3, [r0, #84]	; 0x54
 800208c:	f043 0310 	orr.w	r3, r3, #16
 8002090:	6543      	str	r3, [r0, #84]	; 0x54
 8002092:	2301      	movs	r3, #1
 8002094:	f880 3051 	strb.w	r3, [r0, #81]	; 0x51
 8002098:	f7ff ffef 	bl	800207a <HAL_SPI_ErrorCallback>
 800209c:	bd08      	pop	{r3, pc}

0800209e <SPI_DMAReceiveCplt>:
 800209e:	b538      	push	{r3, r4, r5, lr}
 80020a0:	4605      	mov	r5, r0
 80020a2:	6b84      	ldr	r4, [r0, #56]	; 0x38
 80020a4:	f7fe ff18 	bl	8000ed8 <HAL_GetTick>
 80020a8:	682b      	ldr	r3, [r5, #0]
 80020aa:	681b      	ldr	r3, [r3, #0]
 80020ac:	f413 7f80 	tst.w	r3, #256	; 0x100
 80020b0:	d11e      	bne.n	80020f0 <SPI_DMAReceiveCplt+0x52>
 80020b2:	6821      	ldr	r1, [r4, #0]
 80020b4:	684b      	ldr	r3, [r1, #4]
 80020b6:	f023 0320 	bic.w	r3, r3, #32
 80020ba:	604b      	str	r3, [r1, #4]
 80020bc:	68a3      	ldr	r3, [r4, #8]
 80020be:	b91b      	cbnz	r3, 80020c8 <SPI_DMAReceiveCplt+0x2a>
 80020c0:	6863      	ldr	r3, [r4, #4]
 80020c2:	f5b3 7f82 	cmp.w	r3, #260	; 0x104
 80020c6:	d017      	beq.n	80020f8 <SPI_DMAReceiveCplt+0x5a>
 80020c8:	6822      	ldr	r2, [r4, #0]
 80020ca:	6853      	ldr	r3, [r2, #4]
 80020cc:	f023 0301 	bic.w	r3, r3, #1
 80020d0:	6053      	str	r3, [r2, #4]
 80020d2:	4602      	mov	r2, r0
 80020d4:	2164      	movs	r1, #100	; 0x64
 80020d6:	4620      	mov	r0, r4
 80020d8:	f7ff fe12 	bl	8001d00 <SPI_EndRxTransaction>
 80020dc:	b108      	cbz	r0, 80020e2 <SPI_DMAReceiveCplt+0x44>
 80020de:	2320      	movs	r3, #32
 80020e0:	6563      	str	r3, [r4, #84]	; 0x54
 80020e2:	2300      	movs	r3, #0
 80020e4:	87e3      	strh	r3, [r4, #62]	; 0x3e
 80020e6:	2301      	movs	r3, #1
 80020e8:	f884 3051 	strb.w	r3, [r4, #81]	; 0x51
 80020ec:	6d63      	ldr	r3, [r4, #84]	; 0x54
 80020ee:	b94b      	cbnz	r3, 8002104 <SPI_DMAReceiveCplt+0x66>
 80020f0:	4620      	mov	r0, r4
 80020f2:	f7fe fbc9 	bl	8000888 <HAL_SPI_RxCpltCallback>
 80020f6:	bd38      	pop	{r3, r4, r5, pc}
 80020f8:	6822      	ldr	r2, [r4, #0]
 80020fa:	6853      	ldr	r3, [r2, #4]
 80020fc:	f023 0303 	bic.w	r3, r3, #3
 8002100:	6053      	str	r3, [r2, #4]
 8002102:	e7e6      	b.n	80020d2 <SPI_DMAReceiveCplt+0x34>
 8002104:	4620      	mov	r0, r4
 8002106:	f7ff ffb8 	bl	800207a <HAL_SPI_ErrorCallback>
 800210a:	e7f4      	b.n	80020f6 <SPI_DMAReceiveCplt+0x58>

0800210c <SPI_DMATransmitReceiveCplt>:
 800210c:	b538      	push	{r3, r4, r5, lr}
 800210e:	4605      	mov	r5, r0
 8002110:	6b84      	ldr	r4, [r0, #56]	; 0x38
 8002112:	f7fe fee1 	bl	8000ed8 <HAL_GetTick>
 8002116:	682b      	ldr	r3, [r5, #0]
 8002118:	681b      	ldr	r3, [r3, #0]
 800211a:	f413 7f80 	tst.w	r3, #256	; 0x100
 800211e:	d11b      	bne.n	8002158 <SPI_DMATransmitReceiveCplt+0x4c>
 8002120:	6822      	ldr	r2, [r4, #0]
 8002122:	6853      	ldr	r3, [r2, #4]
 8002124:	f023 0320 	bic.w	r3, r3, #32
 8002128:	6053      	str	r3, [r2, #4]
 800212a:	4602      	mov	r2, r0
 800212c:	2164      	movs	r1, #100	; 0x64
 800212e:	4620      	mov	r0, r4
 8002130:	f7ff fdb2 	bl	8001c98 <SPI_EndRxTxTransaction>
 8002134:	b118      	cbz	r0, 800213e <SPI_DMATransmitReceiveCplt+0x32>
 8002136:	6d63      	ldr	r3, [r4, #84]	; 0x54
 8002138:	f043 0320 	orr.w	r3, r3, #32
 800213c:	6563      	str	r3, [r4, #84]	; 0x54
 800213e:	6822      	ldr	r2, [r4, #0]
 8002140:	6853      	ldr	r3, [r2, #4]
 8002142:	f023 0303 	bic.w	r3, r3, #3
 8002146:	6053      	str	r3, [r2, #4]
 8002148:	2300      	movs	r3, #0
 800214a:	86e3      	strh	r3, [r4, #54]	; 0x36
 800214c:	87e3      	strh	r3, [r4, #62]	; 0x3e
 800214e:	2301      	movs	r3, #1
 8002150:	f884 3051 	strb.w	r3, [r4, #81]	; 0x51
 8002154:	6d63      	ldr	r3, [r4, #84]	; 0x54
 8002156:	b91b      	cbnz	r3, 8002160 <SPI_DMATransmitReceiveCplt+0x54>
 8002158:	4620      	mov	r0, r4
 800215a:	f7ff ff81 	bl	8002060 <HAL_SPI_TxRxCpltCallback>
 800215e:	bd38      	pop	{r3, r4, r5, pc}
 8002160:	4620      	mov	r0, r4
 8002162:	f7ff ff8a 	bl	800207a <HAL_SPI_ErrorCallback>
 8002166:	e7fa      	b.n	800215e <SPI_DMATransmitReceiveCplt+0x52>

08002168 <__libc_init_array>:
 8002168:	b570      	push	{r4, r5, r6, lr}
 800216a:	4e0d      	ldr	r6, [pc, #52]	; (80021a0 <__libc_init_array+0x38>)
 800216c:	4c0d      	ldr	r4, [pc, #52]	; (80021a4 <__libc_init_array+0x3c>)
 800216e:	1ba4      	subs	r4, r4, r6
 8002170:	10a4      	asrs	r4, r4, #2
 8002172:	2500      	movs	r5, #0
 8002174:	42a5      	cmp	r5, r4
 8002176:	d109      	bne.n	800218c <__libc_init_array+0x24>
 8002178:	4e0b      	ldr	r6, [pc, #44]	; (80021a8 <__libc_init_array+0x40>)
 800217a:	4c0c      	ldr	r4, [pc, #48]	; (80021ac <__libc_init_array+0x44>)
 800217c:	f000 f82c 	bl	80021d8 <_init>
 8002180:	1ba4      	subs	r4, r4, r6
 8002182:	10a4      	asrs	r4, r4, #2
 8002184:	2500      	movs	r5, #0
 8002186:	42a5      	cmp	r5, r4
 8002188:	d105      	bne.n	8002196 <__libc_init_array+0x2e>
 800218a:	bd70      	pop	{r4, r5, r6, pc}
 800218c:	f856 3025 	ldr.w	r3, [r6, r5, lsl #2]
 8002190:	4798      	blx	r3
 8002192:	3501      	adds	r5, #1
 8002194:	e7ee      	b.n	8002174 <__libc_init_array+0xc>
 8002196:	f856 3025 	ldr.w	r3, [r6, r5, lsl #2]
 800219a:	4798      	blx	r3
 800219c:	3501      	adds	r5, #1
 800219e:	e7f2      	b.n	8002186 <__libc_init_array+0x1e>
 80021a0:	08002210 	.word	0x08002210
 80021a4:	08002210 	.word	0x08002210
 80021a8:	08002210 	.word	0x08002210
 80021ac:	08002214 	.word	0x08002214

080021b0 <memcpy>:
 80021b0:	b510      	push	{r4, lr}
 80021b2:	1e43      	subs	r3, r0, #1
 80021b4:	440a      	add	r2, r1
 80021b6:	4291      	cmp	r1, r2
 80021b8:	d100      	bne.n	80021bc <memcpy+0xc>
 80021ba:	bd10      	pop	{r4, pc}
 80021bc:	f811 4b01 	ldrb.w	r4, [r1], #1
 80021c0:	f803 4f01 	strb.w	r4, [r3, #1]!
 80021c4:	e7f7      	b.n	80021b6 <memcpy+0x6>

080021c6 <memset>:
 80021c6:	4402      	add	r2, r0
 80021c8:	4603      	mov	r3, r0
 80021ca:	4293      	cmp	r3, r2
 80021cc:	d100      	bne.n	80021d0 <memset+0xa>
 80021ce:	4770      	bx	lr
 80021d0:	f803 1b01 	strb.w	r1, [r3], #1
 80021d4:	e7f9      	b.n	80021ca <memset+0x4>
	...

080021d8 <_init>:
 80021d8:	b5f8      	push	{r3, r4, r5, r6, r7, lr}
 80021da:	bf00      	nop
 80021dc:	bcf8      	pop	{r3, r4, r5, r6, r7}
 80021de:	bc08      	pop	{r3}
 80021e0:	469e      	mov	lr, r3
 80021e2:	4770      	bx	lr

080021e4 <_fini>:
 80021e4:	b5f8      	push	{r3, r4, r5, r6, r7, lr}
 80021e6:	bf00      	nop
 80021e8:	bcf8      	pop	{r3, r4, r5, r6, r7}
 80021ea:	bc08      	pop	{r3}
 80021ec:	469e      	mov	lr, r3
 80021ee:	4770      	bx	lr
